# SymbolsHelper-Confirmed: 6.2.4 amd64
libQt6WebEngineWidgets.so.6 libqt6webenginewidgets6 #MINVER#
| libqt6webenginewidgets6 #MINVER#, qt6-webengine-abi (= 6.2.4)
* Build-Depends-Package: qt6-webengine-dev
 _ZN14QWebEngineView10closeEventEP11QCloseEvent@Base 6.2.2
 _ZN14QWebEngineView10printToPdfERK7QStringRK11QPageLayoutRK11QPageRanges@Base 6.2.2
 _ZN14QWebEngineView10printToPdfERKSt8functionIFvRK10QByteArrayEERK11QPageLayoutRK11QPageRanges@Base 6.2.2
 _ZN14QWebEngineView10setContentERK10QByteArrayRK7QStringRK4QUrl@Base 6.2.2
 _ZN14QWebEngineView10urlChangedERK4QUrl@Base 6.2.2
 _ZN14QWebEngineView11iconChangedERK5QIcon@Base 6.2.2
 _ZN14QWebEngineView11loadStartedEv@Base 6.2.2
 _ZN14QWebEngineView11qt_metacallEN11QMetaObject4CallEiPPv@Base 6.2.2
 _ZN14QWebEngineView11qt_metacastEPKc@Base 6.2.2
 _ZN14QWebEngineView12createWindowEN14QWebEnginePage13WebWindowTypeE@Base 6.2.2
 _ZN14QWebEngineView12loadFinishedEb@Base 6.2.2
 _ZN14QWebEngineView12loadProgressEi@Base 6.2.2
 _ZN14QWebEngineView12titleChangedERK7QString@Base 6.2.2
 _ZN14QWebEngineView13dragMoveEventEP14QDragMoveEvent@Base 6.2.2
 _ZN14QWebEngineView13printFinishedEb@Base 6.2.2
 _ZN14QWebEngineView13setZoomFactorEd@Base 6.2.2
 _ZN14QWebEngineView14dragEnterEventEP15QDragEnterEvent@Base 6.2.2
 _ZN14QWebEngineView14dragLeaveEventEP15QDragLeaveEvent@Base 6.2.2
 _ZN14QWebEngineView14iconUrlChangedERK4QUrl@Base 6.2.2
 _ZN14QWebEngineView14printRequestedEv@Base 6.2.2
 _ZN14QWebEngineView16contextMenuEventEP17QContextMenuEvent@Base 6.2.2
 _ZN14QWebEngineView16selectionChangedEv@Base 6.2.2
 _ZN14QWebEngineView16staticMetaObjectE@Base 6.2.2
 _ZN14QWebEngineView17triggerPageActionEN14QWebEnginePage9WebActionEb@Base 6.2.2
 _ZN14QWebEngineView19pdfPrintingFinishedERK7QStringb@Base 6.2.2
 _ZN14QWebEngineView23renderProcessTerminatedEN14QWebEnginePage30RenderProcessTerminationStatusEi@Base 6.2.2
 _ZN14QWebEngineView25createStandardContextMenuEv@Base 6.2.2
 _ZN14QWebEngineView4backEv@Base 6.2.2
 _ZN14QWebEngineView4loadERK21QWebEngineHttpRequest@Base 6.2.2
 _ZN14QWebEngineView4loadERK4QUrl@Base 6.2.2
 _ZN14QWebEngineView4stopEv@Base 6.2.2
 _ZN14QWebEngineView5eventEP6QEvent@Base 6.2.2
 _ZN14QWebEngineView5printEP8QPrinter@Base 6.2.2
 _ZN14QWebEngineView6reloadEv@Base 6.2.2
 _ZN14QWebEngineView6setUrlERK4QUrl@Base 6.2.2
 _ZN14QWebEngineView7forPageEPK14QWebEnginePage@Base 6.2.2
 _ZN14QWebEngineView7forwardEv@Base 6.2.2
 _ZN14QWebEngineView7setHtmlERK7QStringRK4QUrl@Base 6.2.2
 _ZN14QWebEngineView7setPageEP14QWebEnginePage@Base 6.2.2
 (optional=templinst)_ZN14QWebEngineView8findTextERK7QString6QFlagsIN14QWebEnginePage8FindFlagEERKSt8functionIFvRK24QWebEngineFindTextResultEE@Base 6.2.2
 _ZN14QWebEngineView9dropEventEP10QDropEvent@Base 6.2.2
 _ZN14QWebEngineView9hideEventEP10QHideEvent@Base 6.2.2
 _ZN14QWebEngineView9showEventEP10QShowEvent@Base 6.2.2
 _ZN14QWebEngineViewC1EP7QWidget@Base 6.2.2
 _ZN14QWebEngineViewC2EP7QWidget@Base 6.2.2
 _ZN14QWebEngineViewD0Ev@Base 6.2.2
 _ZN14QWebEngineViewD1Ev@Base 6.2.2
 _ZN14QWebEngineViewD2Ev@Base 6.2.2
 _ZNK14QWebEngineView10metaObjectEv@Base 6.2.2
 _ZNK14QWebEngineView10pageActionEN14QWebEnginePage9WebActionE@Base 6.2.2
 _ZNK14QWebEngineView10zoomFactorEv@Base 6.2.2
 _ZNK14QWebEngineView12hasSelectionEv@Base 6.2.2
 _ZNK14QWebEngineView12selectedTextEv@Base 6.2.2
 _ZNK14QWebEngineView22lastContextMenuRequestEv@Base 6.2.2
 _ZNK14QWebEngineView3urlEv@Base 6.2.2
 _ZNK14QWebEngineView4iconEv@Base 6.2.2
 _ZNK14QWebEngineView4pageEv@Base 6.2.2
 _ZNK14QWebEngineView5titleEv@Base 6.2.2
 _ZNK14QWebEngineView7historyEv@Base 6.2.2
 _ZNK14QWebEngineView7iconUrlEv@Base 6.2.2
 _ZNK14QWebEngineView8settingsEv@Base 6.2.2
 _ZNK14QWebEngineView8sizeHintEv@Base 6.2.2
 _ZTI14QWebEngineView@Base 6.2.2
 _ZTIFvSt10unique_ptrI22QWebEngineNotificationSt14default_deleteIS0_EEE@Base 6.2.2
 _ZTIN15QtWebEngineCore10Compositor8ObserverE@Base 6.2.2
 _ZTIN15QtWebEngineCore23RenderViewContextMenuQtE@Base 6.2.2
 _ZTIN15QtWebEngineCore30RenderWidgetHostViewQtDelegateE@Base 6.2.2
 _ZTIPFvSt10unique_ptrI22QWebEngineNotificationSt14default_deleteIS0_EEE@Base 6.2.2
 _ZTS14QWebEngineView@Base 6.2.2
 _ZTSFvSt10unique_ptrI22QWebEngineNotificationSt14default_deleteIS0_EEE@Base 6.2.2
 _ZTSN15QtWebEngineCore10Compositor8ObserverE@Base 6.2.2
 _ZTSN15QtWebEngineCore23RenderViewContextMenuQtE@Base 6.2.2
 _ZTSN15QtWebEngineCore30RenderWidgetHostViewQtDelegateE@Base 6.2.2
 _ZTSPFvSt10unique_ptrI22QWebEngineNotificationSt14default_deleteIS0_EEE@Base 6.2.2
 _ZTV14QWebEngineView@Base 6.2.2
 _ZTVN15QtWebEngineCore10Compositor8ObserverE@Base 6.2.4
 (optional=templinst)_ZZN9QtPrivate16QMetaTypeForTypeI4QUrlE10getCopyCtrEvENUlPKNS_18QMetaTypeInterfaceEPvPKvE_4_FUNES5_S6_S8_@Base 6.2.2
 (optional=templinst)_ZZN9QtPrivate16QMetaTypeForTypeI4QUrlE10getMoveCtrEvENUlPKNS_18QMetaTypeInterfaceEPvS6_E_4_FUNES5_S6_S6_@Base 6.2.2
 (optional=templinst)_ZZN9QtPrivate16QMetaTypeForTypeI4QUrlE13getDefaultCtrEvENUlPKNS_18QMetaTypeInterfaceEPvE_4_FUNES5_S6_@Base 6.2.2
 (optional=templinst)_ZZN9QtPrivate16QMetaTypeForTypeI4QUrlE7getDtorEvENUlPKNS_18QMetaTypeInterfaceEPvE_4_FUNES5_S6_@Base 6.2.2
 (optional=templinst)_ZZN9QtPrivate16QMetaTypeForTypeI7QStringE10getCopyCtrEvENUlPKNS_18QMetaTypeInterfaceEPvPKvE_4_FUNES5_S6_S8_@Base 6.2.2
 (optional=templinst)_ZZN9QtPrivate16QMetaTypeForTypeI7QStringE10getMoveCtrEvENUlPKNS_18QMetaTypeInterfaceEPvS6_E_4_FUNES5_S6_S6_@Base 6.2.2
 (optional=templinst)_ZZN9QtPrivate16QMetaTypeForTypeI7QStringE13getDefaultCtrEvENUlPKNS_18QMetaTypeInterfaceEPvE_4_FUNES5_S6_@Base 6.2.2
 (optional=templinst)_ZZN9QtPrivate16QMetaTypeForTypeI7QStringE7getDtorEvENUlPKNS_18QMetaTypeInterfaceEPvE_4_FUNES5_S6_@Base 6.2.2
 (optional=templinst)_ZZN9QtPrivate16QMetaTypeForTypeIbE10getCopyCtrEvENUlPKNS_18QMetaTypeInterfaceEPvPKvE_4_FUNES4_S5_S7_@Base 6.2.2
 (optional=templinst)_ZZN9QtPrivate16QMetaTypeForTypeIbE10getMoveCtrEvENUlPKNS_18QMetaTypeInterfaceEPvS5_E_4_FUNES4_S5_S5_@Base 6.2.2
 (optional=templinst)_ZZN9QtPrivate16QMetaTypeForTypeIbE13getDefaultCtrEvENUlPKNS_18QMetaTypeInterfaceEPvE_4_FUNES4_S5_@Base 6.2.2
 (optional=templinst)_ZZN9QtPrivate16QMetaTypeForTypeIdE10getCopyCtrEvENUlPKNS_18QMetaTypeInterfaceEPvPKvE_4_FUNES4_S5_S7_@Base 6.2.2
 (optional=templinst)_ZZN9QtPrivate16QMetaTypeForTypeIdE10getMoveCtrEvENUlPKNS_18QMetaTypeInterfaceEPvS5_E_4_FUNES4_S5_S5_@Base 6.2.2
 (optional=templinst)_ZZN9QtPrivate16QMetaTypeForTypeIdE13getDefaultCtrEvENUlPKNS_18QMetaTypeInterfaceEPvE_4_FUNES4_S5_@Base 6.2.2
 (optional=templinst)_ZZN9QtPrivate16QMetaTypeForTypeIiE10getCopyCtrEvENUlPKNS_18QMetaTypeInterfaceEPvPKvE_4_FUNES4_S5_S7_@Base 6.2.2
 (optional=templinst)_ZZN9QtPrivate16QMetaTypeForTypeIiE10getMoveCtrEvENUlPKNS_18QMetaTypeInterfaceEPvS5_E_4_FUNES4_S5_S5_@Base 6.2.2
 (optional=templinst)_ZZN9QtPrivate16QMetaTypeForTypeIiE13getDefaultCtrEvENUlPKNS_18QMetaTypeInterfaceEPvE_4_FUNES4_S5_@Base 6.2.2
 (c++)"non-virtual thunk to QWebEngineView::~QWebEngineView()@Base" 6.2.2
