# SymbolsHelper-Confirmed: 6.6.0 amd64
libQt6WebEngineCore.so.6 libqt6webenginecore6 #MINVER#, libqt6webenginecore6-bin #MINVER#
| libqt6webenginecore6 #MINVER#, libqt6webenginecore6-bin #MINVER#, qt6-webengine-private-abi (= 6.6.0)
* Build-Depends-Packages: qt6-webengine-dev, qt6-webengine-private-dev
 ANGLEGetDisplayPlatform@Qt_6 6.6.0
 ANGLEResetDisplayPlatform@Qt_6 6.6.0
 Qt_6@Qt_6 6.6.0
 (symver)Qt_6_PRIVATE_API 0
 _Z17qWebEngineVersionv@Qt_6 6.6.0
 _Z21qWebEngineProcessNamev@Qt_6 6.6.0
 _Z25qWebEngineChromiumVersionv@Qt_6 6.6.0
 _Z30qWebEngineGetDomainAndRegistryRK4QUrl@Qt_6 6.6.0
 _Z38qWebEngineChromiumSecurityPatchVersionv@Qt_6 6.6.0
 _ZGVZN9QMetaType21registerConverterImplI5QListI4QUrlE9QIterableI13QMetaSequenceEEEbSt8functionIFbPKvPvEES_S_E10unregister@Qt_6 6.6.0
 _ZGVZN9QMetaType23registerMutableViewImplI5QListI4QUrlE9QIterableI13QMetaSequenceEEEbSt8functionIFbPvS8_EES_S_E10unregister@Qt_6 6.6.0
 _ZGVZNKSt8__detail11_AnyMatcherINSt7__cxx1112regex_traitsIcEELb0ELb0ELb0EEclEcE5__nul@Qt_6 6.6.0
 _ZGVZNKSt8__detail11_AnyMatcherINSt7__cxx1112regex_traitsIcEELb0ELb0ELb1EEclEcE5__nul@Qt_6 6.6.0
 _ZGVZNKSt8__detail11_AnyMatcherINSt7__cxx1112regex_traitsIcEELb0ELb1ELb0EEclEcE5__nul@Qt_6 6.6.0
 _ZGVZNKSt8__detail11_AnyMatcherINSt7__cxx1112regex_traitsIcEELb0ELb1ELb1EEclEcE5__nul@Qt_6 6.6.0
 _ZN13QMetaSequence12MetaSequenceI5QListI4QUrlEE5valueE@Qt_6 6.6.0
 _ZN14QWebEnginePage10printToPdfERK7QStringRK11QPageLayoutRK11QPageRanges@Qt_6 6.6.0
 _ZN14QWebEnginePage10printToPdfERKSt8functionIFvRK10QByteArrayEERK11QPageLayoutRK11QPageRanges@Qt_6 6.6.0
 _ZN14QWebEnginePage10setContentERK10QByteArrayRK7QStringRK4QUrl@Qt_6 6.6.0
 _ZN14QWebEnginePage10setVisibleEb@Qt_6 6.6.0
 _ZN14QWebEnginePage10urlChangedERK4QUrl@Qt_6 6.6.0
 _ZN14QWebEnginePage11chooseFilesENS_17FileSelectionModeERK5QListI7QStringES5_@Qt_6 6.6.0
 _ZN14QWebEnginePage11iconChangedERK5QIcon@Qt_6 6.6.0
 _ZN14QWebEnginePage11linkHoveredERK7QString@Qt_6 6.6.0
 _ZN14QWebEnginePage11loadStartedEv@Qt_6 6.6.0
 _ZN14QWebEnginePage11qt_metacallEN11QMetaObject4CallEiPPv@Qt_6 6.6.0
 _ZN14QWebEnginePage11qt_metacastEPKc@Qt_6 6.6.0
 _ZN14QWebEnginePage12createWindowENS_13WebWindowTypeE@Qt_6 6.6.0
 _ZN14QWebEnginePage12loadFinishedEb@Qt_6 6.6.0
 _ZN14QWebEnginePage12loadProgressEi@Qt_6 6.6.0
 _ZN14QWebEnginePage12titleChangedERK7QString@Qt_6 6.6.0
 _ZN14QWebEnginePage13runJavaScriptERK7QStringRKSt8functionIFvRK8QVariantEE@Qt_6 6.6.0
 _ZN14QWebEnginePage13runJavaScriptERK7QStringjRKSt8functionIFvRK8QVariantEE@Qt_6 6.6.0
 _ZN14QWebEnginePage13setAudioMutedEb@Qt_6 6.6.0
 _ZN14QWebEnginePage13setWebChannelEP11QWebChannelj@Qt_6 6.6.0
 _ZN14QWebEnginePage13setZoomFactorEd@Qt_6 6.6.0
 _ZN14QWebEnginePage13triggerActionENS_9WebActionEb@Qt_6 6.6.0
 _ZN14QWebEnginePage14iconUrlChangedERK4QUrl@Qt_6 6.6.0
 _ZN14QWebEnginePage14loadingChangedERK21QWebEngineLoadingInfo@Qt_6 6.6.0
 _ZN14QWebEnginePage14printRequestedEv@Qt_6 6.6.0
 _ZN14QWebEnginePage14quotaRequestedE22QWebEngineQuotaRequest@Qt_6 6.6.0
 _ZN14QWebEnginePage14visibleChangedEb@Qt_6 6.6.0
 _ZN14QWebEnginePage15javaScriptAlertERK4QUrlRK7QString@Qt_6 6.6.0
 _ZN14QWebEnginePage15setDevToolsPageEPS_@Qt_6 6.6.0
 _ZN14QWebEnginePage16_q_aboutToDeleteEv@Qt_6 6.6.0
 _ZN14QWebEnginePage16certificateErrorERK26QWebEngineCertificateError@Qt_6 6.6.0
 _ZN14QWebEnginePage16findTextFinishedERK24QWebEngineFindTextResult@Qt_6 6.6.0
 _ZN14QWebEnginePage16javaScriptPromptERK4QUrlRK7QStringS5_PS3_@Qt_6 6.6.0
 _ZN14QWebEnginePage16selectionChangedEv@Qt_6 6.6.0
 _ZN14QWebEnginePage16setInspectedPageEPS_@Qt_6 6.6.0
 _ZN14QWebEnginePage16staticMetaObjectE@Qt_6 6.6.0
 _ZN14QWebEnginePage17acceptAsNewWindowER26QWebEngineNewWindowRequest@Qt_6 6.6.0
 _ZN14QWebEnginePage17audioMutedChangedEb@Qt_6 6.6.0
 _ZN14QWebEnginePage17javaScriptConfirmERK4QUrlRK7QString@Qt_6 6.6.0
 _ZN14QWebEnginePage17setLifecycleStateENS_14LifecycleStateE@Qt_6 6.6.0
 _ZN14QWebEnginePage18newWindowRequestedER26QWebEngineNewWindowRequest@Qt_6 6.6.0
 _ZN14QWebEnginePage18setBackgroundColorERK6QColor@Qt_6 6.6.0
 _ZN14QWebEnginePage19contentsSizeChangedERK6QSizeF@Qt_6 6.6.0
 _ZN14QWebEnginePage19fullScreenRequestedE27QWebEngineFullScreenRequest@Qt_6 6.6.0
 _ZN14QWebEnginePage19navigationRequestedER27QWebEngineNavigationRequest@Qt_6 6.6.0
 _ZN14QWebEnginePage19pdfPrintingFinishedERK7QStringb@Qt_6 6.6.0
 _ZN14QWebEnginePage20setFeaturePermissionERK4QUrlNS_7FeatureENS_16PermissionPolicyE@Qt_6 6.6.0
 _ZN14QWebEnginePage20windowCloseRequestedEv@Qt_6 6.6.0
 _ZN14QWebEnginePage21lifecycleStateChangedENS_14LifecycleStateE@Qt_6 6.6.0
 _ZN14QWebEnginePage21replaceMisspelledWordERK7QString@Qt_6 6.6.0
 _ZN14QWebEnginePage21scrollPositionChangedERK7QPointF@Qt_6 6.6.0
 _ZN14QWebEnginePage22authenticationRequiredERK4QUrlP14QAuthenticator@Qt_6 6.6.0
 _ZN14QWebEnginePage22recentlyAudibleChangedEb@Qt_6 6.6.0
 _ZN14QWebEnginePage23acceptNavigationRequestERK4QUrlNS_14NavigationTypeEb@Qt_6 6.6.0
 _ZN14QWebEnginePage23geometryChangeRequestedERK5QRect@Qt_6 6.6.0
 _ZN14QWebEnginePage23recommendedStateChangedENS_14LifecycleStateE@Qt_6 6.6.0
 _ZN14QWebEnginePage23renderProcessPidChangedEx@Qt_6 6.6.0
 _ZN14QWebEnginePage23renderProcessTerminatedENS_30RenderProcessTerminationStatusEi@Qt_6 6.6.0
 _ZN14QWebEnginePage23selectClientCertificateE36QWebEngineClientCertificateSelection@Qt_6 6.6.0
 _ZN14QWebEnginePage24javaScriptConsoleMessageENS_29JavaScriptConsoleMessageLevelERK7QStringiS3_@Qt_6 6.6.0
 _ZN14QWebEnginePage24setUrlRequestInterceptorEP31QWebEngineUrlRequestInterceptor@Qt_6 6.6.0
 _ZN14QWebEnginePage25fileSystemAccessRequestedE33QWebEngineFileSystemAccessRequest@Qt_6 6.6.0
 _ZN14QWebEnginePage26featurePermissionRequestedERK4QUrlNS_7FeatureE@Qt_6 6.6.0
 _ZN14QWebEnginePage27proxyAuthenticationRequiredERK4QUrlP14QAuthenticatorRK7QString@Qt_6 6.6.0
 _ZN14QWebEnginePage32featurePermissionRequestCanceledERK4QUrlNS_7FeatureE@Qt_6 6.6.0
 _ZN14QWebEnginePage32registerProtocolHandlerRequestedE40QWebEngineRegisterProtocolHandlerRequest@Qt_6 6.6.0
 _ZN14QWebEnginePage4loadERK21QWebEngineHttpRequest@Qt_6 6.6.0
 _ZN14QWebEnginePage4loadERK4QUrl@Qt_6 6.6.0
 _ZN14QWebEnginePage5eventEP6QEvent@Qt_6 6.6.0
 _ZN14QWebEnginePage6setUrlERK4QUrl@Qt_6 6.6.0
 _ZN14QWebEnginePage7scriptsEv@Qt_6 6.6.0
 _ZN14QWebEnginePage7setHtmlERK7QStringRK4QUrl@Qt_6 6.6.0
 _ZN14QWebEnginePage8downloadERK4QUrlRK7QString@Qt_6 6.6.0
 (optional=templinst)_ZN14QWebEnginePage8findTextERK7QString6QFlagsINS_8FindFlagEERKSt8functionIFvRK24QWebEngineFindTextResultEE@Qt_6 6.6.0
 _ZN14QWebEnginePageC1EP17QWebEngineProfileP7QObject@Qt_6 6.6.0
 _ZN14QWebEnginePageC1EP7QObject@Qt_6 6.6.0
 _ZN14QWebEnginePageC2EP17QWebEngineProfileP7QObject@Qt_6 6.6.0
 _ZN14QWebEnginePageC2EP7QObject@Qt_6 6.6.0
 _ZN14QWebEnginePageD0Ev@Qt_6 6.6.0
 _ZN14QWebEnginePageD1Ev@Qt_6 6.6.0
 _ZN14QWebEnginePageD2Ev@Qt_6 6.6.0
 _ZN14WebEngineError15toQtErrorDomainEi@Qt_6 6.6.0
 _ZN14WebEngineError16UserAbortedErrorE@Qt_6 6.6.0
 _ZN14WebEngineError20toQtErrorDescriptionEi@Qt_6 6.6.0
 _ZN15QtWebEngineCore10Compositor14releaseTextureEv@Qt_6 6.6.0
 _ZN15QtWebEngineCore10Compositor14unlockBindingsEv@Qt_6 6.6.0
 _ZN15QtWebEngineCore10Compositor14waitForTextureEv@Qt_6 6.6.0
 _ZN15QtWebEngineCore10Compositor16releaseResourcesEP12QQuickWindow@Qt_6 6.6.0
 _ZN15QtWebEngineCore10Compositor16textureIsFlippedEv@Qt_6 6.6.0
 _ZN15QtWebEngineCore10Compositor2IdC1EN3viz11FrameSinkIdE@Qt_6 6.6.0
 _ZN15QtWebEngineCore10Compositor2IdC2EN3viz11FrameSinkIdE@Qt_6 6.6.0
 _ZN15QtWebEngineCore10Compositor4bindENS0_2IdE@Qt_6 6.6.0
 _ZN15QtWebEngineCore10Compositor6unbindEv@Qt_6 6.6.0
 _ZN15QtWebEngineCore10Compositor7BindingD1Ev@Qt_6 6.6.0
 _ZN15QtWebEngineCore10Compositor7BindingD2Ev@Qt_6 6.6.0
 _ZN15QtWebEngineCore10Compositor7textureEP12QQuickWindowj@Qt_6 6.6.0
 _ZN15QtWebEngineCore10Compositor8Observer10compositorEv@Qt_6 6.6.0
 _ZN15QtWebEngineCore10Compositor8Observer4bindENS0_2IdE@Qt_6 6.6.0
 _ZN15QtWebEngineCore10Compositor8Observer6unbindEv@Qt_6 6.6.0
 _ZN15QtWebEngineCore10Compositor8observerEv@Qt_6 6.6.0
 _ZN15QtWebEngineCore10initializeEv@Qt_6 6.6.0
 _ZN15QtWebEngineCore11closingDownEv@Qt_6 6.6.0
 _ZN15QtWebEngineCore11processMainEiPPKc@Qt_6 6.6.0
 _ZN15QtWebEngineCore13PrinterWorker11qt_metacallEN11QMetaObject4CallEiPPv@Qt_6 6.6.0
 _ZN15QtWebEngineCore13PrinterWorker11qt_metacastEPKc@Qt_6 6.6.0
 _ZN15QtWebEngineCore13PrinterWorker11resultReadyEb@Qt_6 6.6.0
 _ZN15QtWebEngineCore13PrinterWorker16staticMetaObjectE@Qt_6 6.6.0
 _ZN15QtWebEngineCore13PrinterWorker5printEv@Qt_6 6.6.0
 _ZN15QtWebEngineCore13PrinterWorkerC1E14QSharedPointerI10QByteArrayEP17QPagedPaintDevice@Qt_6 6.6.0
 _ZN15QtWebEngineCore13PrinterWorkerC2E14QSharedPointerI10QByteArrayEP17QPagedPaintDevice@Qt_6 6.6.0
 _ZN15QtWebEngineCore13PrinterWorkerD0Ev@Qt_6 6.6.0
 _ZN15QtWebEngineCore13PrinterWorkerD1Ev@Qt_6 6.6.0
 _ZN15QtWebEngineCore13PrinterWorkerD2Ev@Qt_6 6.6.0
 _ZN15QtWebEngineCore14FindTextHelper11stopFindingEv@Qt_6 6.6.0
 _ZN15QtWebEngineCore14FindTextHelper12startFindingERK7QStringbb@Qt_6 6.6.0
 _ZN15QtWebEngineCore14FindTextHelper12startFindingERK7QStringbbRK8QJSValue@Qt_6 6.6.0
 _ZN15QtWebEngineCore14FindTextHelper12startFindingERK7QStringbbRKSt8functionIFvRK24QWebEngineFindTextResultEE@Qt_6 6.6.0
 _ZN15QtWebEngineCore14FindTextHelper15handleFindReplyEPN7content11WebContentsEiiRKN3gfx4RectEib@Qt_6 6.6.0
 _ZN15QtWebEngineCore14FindTextHelper19handleLoadCommittedEv@Qt_6 6.6.0
 _ZN15QtWebEngineCore14FindTextHelper20invokeResultCallbackEiii@Qt_6 6.6.0
 _ZN15QtWebEngineCore14FindTextHelper22m_findRequestIdCounterE@Qt_6 6.6.0
 _ZN15QtWebEngineCore14FindTextHelperC1EPN7content11WebContentsEPNS_24WebContentsAdapterClientE@Qt_6 6.6.0
 _ZN15QtWebEngineCore14FindTextHelperC2EPN7content11WebContentsEPNS_24WebContentsAdapterClientE@Qt_6 6.6.0
 _ZN15QtWebEngineCore14FindTextHelperD1Ev@Qt_6 6.6.0
 _ZN15QtWebEngineCore14FindTextHelperD2Ev@Qt_6 6.6.0
 _ZN15QtWebEngineCore14ProfileAdapter11cookieStoreEv@Qt_6 6.6.0
 _ZN15QtWebEngineCore14ProfileAdapter11setDataPathERK7QString@Qt_6 6.6.0
 _ZN15QtWebEngineCore14ProfileAdapter12removeClientEPNS_20ProfileAdapterClientE@Qt_6 6.6.0
 _ZN15QtWebEngineCore14ProfileAdapter12setCachePathERK7QString@Qt_6 6.6.0
 _ZN15QtWebEngineCore14ProfileAdapter13pauseDownloadEj@Qt_6 6.6.0
 _ZN15QtWebEngineCore14ProfileAdapter14cancelDownloadEj@Qt_6 6.6.0
 _ZN15QtWebEngineCore14ProfileAdapter14clearHttpCacheEv@Qt_6 6.6.0
 _ZN15QtWebEngineCore14ProfileAdapter14removeDownloadEj@Qt_6 6.6.0
 _ZN15QtWebEngineCore14ProfileAdapter14resumeDownloadEj@Qt_6 6.6.0
 _ZN15QtWebEngineCore14ProfileAdapter14setStorageNameERK7QString@Qt_6 6.6.0
 _ZN15QtWebEngineCore14ProfileAdapter15checkPermissionERK4QUrlNS0_14PermissionTypeE@Qt_6 6.6.0
 _ZN15QtWebEngineCore14ProfileAdapter15removeUrlSchemeERK10QByteArray@Qt_6 6.6.0
 _ZN15QtWebEngineCore14ProfileAdapter15setDownloadPathERK7QString@Qt_6 6.6.0
 _ZN15QtWebEngineCore14ProfileAdapter15setOffTheRecordEb@Qt_6 6.6.0
 _ZN15QtWebEngineCore14ProfileAdapter16setHttpCacheTypeENS0_13HttpCacheTypeE@Qt_6 6.6.0
 _ZN15QtWebEngineCore14ProfileAdapter16setHttpUserAgentERK7QString@Qt_6 6.6.0
 _ZN15QtWebEngineCore14ProfileAdapter16urlSchemeHandlerERK10QByteArray@Qt_6 6.6.0
 _ZN15QtWebEngineCore14ProfileAdapter17globalQObjectRootEv@Qt_6 6.6.0
 _ZN15QtWebEngineCore14ProfileAdapter18requestInterceptorEv@Qt_6 6.6.0
 _ZN15QtWebEngineCore14ProfileAdapter19setHttpCacheMaxSizeEi@Qt_6 6.6.0
 _ZN15QtWebEngineCore14ProfileAdapter19visitedLinksManagerEv@Qt_6 6.6.0
 _ZN15QtWebEngineCore14ProfileAdapter20ensureDataPathExistsEv@Qt_6 6.6.0
 _ZN15QtWebEngineCore14ProfileAdapter20setSpellCheckEnabledEb@Qt_6 6.6.0
 _ZN15QtWebEngineCore14ProfileAdapter21defaultProfileAdapterEv@Qt_6 6.6.0
 _ZN15QtWebEngineCore14ProfileAdapter21determineDownloadPathERK7QStringS3_RKl@Qt_6 6.6.0
 _ZN15QtWebEngineCore14ProfileAdapter21requestIconForIconURLERK4QUrlibSt8functionIFvRK5QIconS3_EE@Qt_6 6.6.0
 _ZN15QtWebEngineCore14ProfileAdapter21requestIconForPageURLERK4QUrlibSt8functionIFvRK5QIconS3_S3_EE@Qt_6 6.6.0
 _ZN15QtWebEngineCore14ProfileAdapter21setHttpAcceptLanguageERK7QString@Qt_6 6.6.0
 _ZN15QtWebEngineCore14ProfileAdapter21setPushServiceEnabledEb@Qt_6 6.6.0
 _ZN15QtWebEngineCore14ProfileAdapter21setRequestInterceptorEP31QWebEngineUrlRequestInterceptor@Qt_6 6.6.0
 _ZN15QtWebEngineCore14ProfileAdapter21setVisitedLinksPolicyENS0_18VisitedLinksPolicyE@Qt_6 6.6.0
 _ZN15QtWebEngineCore14ProfileAdapter22clientCertificateStoreEv@Qt_6 6.6.0
 _ZN15QtWebEngineCore14ProfileAdapter22permissionRequestReplyERK4QUrlNS0_14PermissionTypeENS0_15PermissionStateE@Qt_6 6.6.0
 _ZN15QtWebEngineCore14ProfileAdapter22removeUrlSchemeHandlerEP26QWebEngineUrlSchemeHandler@Qt_6 6.6.0
 _ZN15QtWebEngineCore14ProfileAdapter22setSpellCheckLanguagesERK5QListI7QStringE@Qt_6 6.6.0
 _ZN15QtWebEngineCore14ProfileAdapter22userResourceControllerEv@Qt_6 6.6.0
 _ZN15QtWebEngineCore14ProfileAdapter23downloadManagerDelegateEv@Qt_6 6.6.0
 _ZN15QtWebEngineCore14ProfileAdapter23installUrlSchemeHandlerERK10QByteArrayP26QWebEngineUrlSchemeHandler@Qt_6 6.6.0
 _ZN15QtWebEngineCore14ProfileAdapter24resetVisitedLinksManagerEv@Qt_6 6.6.0
 _ZN15QtWebEngineCore14ProfileAdapter26reinitializeHistoryServiceEv@Qt_6 6.6.0
 _ZN15QtWebEngineCore14ProfileAdapter26removeAllUrlSchemeHandlersEv@Qt_6 6.6.0
 _ZN15QtWebEngineCore14ProfileAdapter26setPersistentCookiesPolicyENS0_23PersistentCookiesPolicyE@Qt_6 6.6.0
 _ZN15QtWebEngineCore14ProfileAdapter27addWebContentsAdapterClientEPNS_24WebContentsAdapterClientE@Qt_6 6.6.0
 _ZN15QtWebEngineCore14ProfileAdapter27createDefaultProfileAdapterEv@Qt_6 6.6.0
 _ZN15QtWebEngineCore14ProfileAdapter29updateCustomUrlSchemeHandlersEv@Qt_6 6.6.0
 _ZN15QtWebEngineCore14ProfileAdapter30removeWebContentsAdapterClientEPNS_24WebContentsAdapterClientE@Qt_6 6.6.0
 _ZN15QtWebEngineCore14ProfileAdapter35releaseAllWebContentsAdapterClientsEv@Qt_6 6.6.0
 _ZN15QtWebEngineCore14ProfileAdapter7profileEv@Qt_6 6.6.0
 _ZN15QtWebEngineCore14ProfileAdapter9addClientEPNS_20ProfileAdapterClientE@Qt_6 6.6.0
 _ZN15QtWebEngineCore14ProfileAdapterC1ERK7QString@Qt_6 6.6.0
 _ZN15QtWebEngineCore14ProfileAdapterC2ERK7QString@Qt_6 6.6.0
 _ZN15QtWebEngineCore14ProfileAdapterD0Ev@Qt_6 6.6.0
 _ZN15QtWebEngineCore14ProfileAdapterD1Ev@Qt_6 6.6.0
 _ZN15QtWebEngineCore14ProfileAdapterD2Ev@Qt_6 6.6.0
 _ZN15QtWebEngineCore18WebContentsAdapter10devToolsIdEv@Qt_6 6.6.0
 _ZN15QtWebEngineCore18WebContentsAdapter10initializeEPN7content12SiteInstanceE@Qt_6 6.6.0
 _ZN15QtWebEngineCore18WebContentsAdapter10printToPDFERK11QPageLayoutRK11QPageRangesRK7QString@Qt_6 6.6.0
 _ZN15QtWebEngineCore18WebContentsAdapter10setContentERK10QByteArrayRK7QStringRK4QUrl@Qt_6 6.6.0
 _ZN15QtWebEngineCore18WebContentsAdapter10setVisibleEb@Qt_6 6.6.0
 _ZN15QtWebEngineCore18WebContentsAdapter10viewSourceEv@Qt_6 6.6.0
 _ZN15QtWebEngineCore18WebContentsAdapter11copyImageAtERK6QPoint@Qt_6 6.6.0
 _ZN15QtWebEngineCore18WebContentsAdapter11endDraggingEP10QDropEventRK7QPointF@Qt_6 6.6.0
 _ZN15QtWebEngineCore18WebContentsAdapter11loadDefaultEv@Qt_6 6.6.0
 _ZN15QtWebEngineCore18WebContentsAdapter12navigateBackEv@Qt_6 6.6.0
 _ZN15QtWebEngineCore18WebContentsAdapter12requestCloseEv@Qt_6 6.6.0
 _ZN15QtWebEngineCore18WebContentsAdapter12setInspectorEb@Qt_6 6.6.0
 _ZN15QtWebEngineCore18WebContentsAdapter13canViewSourceEv@Qt_6 6.6.0
 _ZN15QtWebEngineCore18WebContentsAdapter13runJavaScriptERK7QStringj@Qt_6 6.6.0
 _ZN15QtWebEngineCore18WebContentsAdapter13setAudioMutedEb@Qt_6 6.6.0
 _ZN15QtWebEngineCore18WebContentsAdapter13setWebChannelEP11QWebChannelj@Qt_6 6.6.0
 _ZN15QtWebEngineCore18WebContentsAdapter13setZoomFactorEd@Qt_6 6.6.0
 _ZN15QtWebEngineCore18WebContentsAdapter13startDraggingEP7QObjectRKN7content8DropDataE6QFlagsIN2Qt10DropActionEERK7QPixmapRK6QPoint@Qt_6 6.6.0
 _ZN15QtWebEngineCore18WebContentsAdapter14exitFullScreenEv@Qt_6 6.6.0
 _ZN15QtWebEngineCore18WebContentsAdapter14findTextHelperEv@Qt_6 6.6.0
 _ZN15QtWebEngineCore18WebContentsAdapter14profileAdapterEv@Qt_6 6.6.0
 _ZN15QtWebEngineCore18WebContentsAdapter14resetSelectionEv@Qt_6 6.6.0
 _ZN15QtWebEngineCore18WebContentsAdapter15navigateForwardEv@Qt_6 6.6.0
 _ZN15QtWebEngineCore18WebContentsAdapter15navigateToIndexEi@Qt_6 6.6.0
 _ZN15QtWebEngineCore18WebContentsAdapter16focusIfNecessaryEv@Qt_6 6.6.0
 _ZN15QtWebEngineCore18WebContentsAdapter16inspectElementAtERK6QPoint@Qt_6 6.6.0
 _ZN15QtWebEngineCore18WebContentsAdapter16navigateToOffsetEi@Qt_6 6.6.0
 _ZN15QtWebEngineCore18WebContentsAdapter16updateDragActionEi@Qt_6 6.6.0
 _ZN15QtWebEngineCore18WebContentsAdapter17browserAccessibleEv@Qt_6 6.6.0
 _ZN15QtWebEngineCore18WebContentsAdapter17changedFullScreenEv@Qt_6 6.6.0
 _ZN15QtWebEngineCore18WebContentsAdapter17setLifecycleStateENS_24WebContentsAdapterClient14LifecycleStateE@Qt_6 6.6.0
 _ZN15QtWebEngineCore18WebContentsAdapter18pasteAndMatchStyleEv@Qt_6 6.6.0
 _ZN15QtWebEngineCore18WebContentsAdapter18replaceMisspellingERK7QString@Qt_6 6.6.0
 _ZN15QtWebEngineCore18WebContentsAdapter18setBackgroundColorERK6QColor@Qt_6 6.6.0
 _ZN15QtWebEngineCore18WebContentsAdapter18updateDragPositionEP14QDragMoveEventRK7QPointF@Qt_6 6.6.0
 _ZN15QtWebEngineCore18WebContentsAdapter19changeTextDirectionEb@Qt_6 6.6.0
 _ZN15QtWebEngineCore18WebContentsAdapter19fetchDocumentMarkupEv@Qt_6 6.6.0
 _ZN15QtWebEngineCore18WebContentsAdapter20navigationEntryCountEv@Qt_6 6.6.0
 _ZN15QtWebEngineCore18WebContentsAdapter20openDevToolsFrontendE14QSharedPointerIS0_E@Qt_6 6.6.0
 _ZN15QtWebEngineCore18WebContentsAdapter20reloadAndBypassCacheEv@Qt_6 6.6.0
 _ZN15QtWebEngineCore18WebContentsAdapter20updateWebPreferencesERKN5blink8web_pref14WebPreferencesE@Qt_6 6.6.0
 _ZN15QtWebEngineCore18WebContentsAdapter21closeDevToolsFrontendEv@Qt_6 6.6.0
 _ZN15QtWebEngineCore18WebContentsAdapter21getNavigationEntryUrlEi@Qt_6 6.6.0
 _ZN15QtWebEngineCore18WebContentsAdapter21initializeRenderPrefsEv@Qt_6 6.6.0
 _ZN15QtWebEngineCore18WebContentsAdapter21setRequestInterceptorEP31QWebEngineUrlRequestInterceptor@Qt_6 6.6.0
 _ZN15QtWebEngineCore18WebContentsAdapter22clearNavigationHistoryEv@Qt_6 6.6.0
 _ZN15QtWebEngineCore18WebContentsAdapter22fetchDocumentInnerTextEv@Qt_6 6.6.0
 _ZN15QtWebEngineCore18WebContentsAdapter22grantFeaturePermissionERK4QUrlNS_14ProfileAdapter14PermissionTypeENS4_15PermissionStateE@Qt_6 6.6.0
 _ZN15QtWebEngineCore18WebContentsAdapter22updateRecommendedStateEv@Qt_6 6.6.0
 _ZN15QtWebEngineCore18WebContentsAdapter23getNavigationEntryTitleEi@Qt_6 6.6.0
 _ZN15QtWebEngineCore18WebContentsAdapter24grantMouseLockPermissionERK4QUrlb@Qt_6 6.6.0
 _ZN15QtWebEngineCore18WebContentsAdapter24printToPDFCallbackResultERK11QPageLayoutRK11QPageRangesbb@Qt_6 6.6.0
 _ZN15QtWebEngineCore18WebContentsAdapter25devToolsFrontendDestroyedEPNS_18DevToolsFrontendQtE@Qt_6 6.6.0
 _ZN15QtWebEngineCore18WebContentsAdapter25getNavigationEntryIconUrlEi@Qt_6 6.6.0
 _ZN15QtWebEngineCore18WebContentsAdapter26executeMediaPlayerActionAtERK6QPointNS0_17MediaPlayerActionEb@Qt_6 6.6.0
 _ZN15QtWebEngineCore18WebContentsAdapter26grantMediaAccessPermissionERK4QUrl6QFlagsINS_24WebContentsAdapterClient16MediaRequestFlagEE@Qt_6 6.6.0
 _ZN15QtWebEngineCore18WebContentsAdapter26handleDropDataFileContentsERKN7content8DropDataEP9QMimeData@Qt_6 6.6.0
 _ZN15QtWebEngineCore18WebContentsAdapter26serializeNavigationHistoryER11QDataStream@Qt_6 6.6.0
 _ZN15QtWebEngineCore18WebContentsAdapter27currentNavigationEntryIndexEv@Qt_6 6.6.0
 _ZN15QtWebEngineCore18WebContentsAdapter27getNavigationEntryTimestampEi@Qt_6 6.6.0
 _ZN15QtWebEngineCore18WebContentsAdapter27runJavaScriptCallbackResultERK7QStringj@Qt_6 6.6.0
 _ZN15QtWebEngineCore18WebContentsAdapter29getNavigationEntryOriginalUrlEi@Qt_6 6.6.0
 _ZN15QtWebEngineCore18WebContentsAdapter29resetTouchSelectionControllerEv@Qt_6 6.6.0
 _ZN15QtWebEngineCore18WebContentsAdapter29waitForUpdateDragActionCalledEv@Qt_6 6.6.0
 _ZN15QtWebEngineCore18WebContentsAdapter32handlePendingMouseLockPermissionEv@Qt_6 6.6.0
 _ZN15QtWebEngineCore18WebContentsAdapter37createFromSerializedNavigationHistoryER11QDataStreamPNS_24WebContentsAdapterClientE@Qt_6 6.6.0
 _ZN15QtWebEngineCore18WebContentsAdapter3cutEv@Qt_6 6.6.0
 _ZN15QtWebEngineCore18WebContentsAdapter4copyEv@Qt_6 6.6.0
 _ZN15QtWebEngineCore18WebContentsAdapter4loadERK21QWebEngineHttpRequest@Qt_6 6.6.0
 _ZN15QtWebEngineCore18WebContentsAdapter4loadERK4QUrl@Qt_6 6.6.0
 _ZN15QtWebEngineCore18WebContentsAdapter4redoEv@Qt_6 6.6.0
 _ZN15QtWebEngineCore18WebContentsAdapter4saveERK7QStringi@Qt_6 6.6.0
 _ZN15QtWebEngineCore18WebContentsAdapter4stopEv@Qt_6 6.6.0
 _ZN15QtWebEngineCore18WebContentsAdapter4undoEv@Qt_6 6.6.0
 _ZN15QtWebEngineCore18WebContentsAdapter5pasteEv@Qt_6 6.6.0
 _ZN15QtWebEngineCore18WebContentsAdapter6freezeEv@Qt_6 6.6.0
 _ZN15QtWebEngineCore18WebContentsAdapter6reloadEv@Qt_6 6.6.0
 _ZN15QtWebEngineCore18WebContentsAdapter7discardEv@Qt_6 6.6.0
 _ZN15QtWebEngineCore18WebContentsAdapter7profileEv@Qt_6 6.6.0
 _ZN15QtWebEngineCore18WebContentsAdapter8downloadERK4QUrlRK7QStringS3_NS_14ReferrerPolicyE@Qt_6 6.6.0
 _ZN15QtWebEngineCore18WebContentsAdapter8unfreezeEv@Qt_6 6.6.0
 _ZN15QtWebEngineCore18WebContentsAdapter8unselectEv@Qt_6 6.6.0
 _ZN15QtWebEngineCore18WebContentsAdapter8wasShownEv@Qt_6 6.6.0
 _ZN15QtWebEngineCore18WebContentsAdapter9enterDragEP15QDragEnterEventRK7QPointF@Qt_6 6.6.0
 _ZN15QtWebEngineCore18WebContentsAdapter9leaveDragEv@Qt_6 6.6.0
 _ZN15QtWebEngineCore18WebContentsAdapter9selectAllEv@Qt_6 6.6.0
 _ZN15QtWebEngineCore18WebContentsAdapter9setClientEPNS_24WebContentsAdapterClientE@Qt_6 6.6.0
 _ZN15QtWebEngineCore18WebContentsAdapter9undiscardEv@Qt_6 6.6.0
 _ZN15QtWebEngineCore18WebContentsAdapter9wasHiddenEv@Qt_6 6.6.0
 _ZN15QtWebEngineCore18WebContentsAdapterC1ESt10unique_ptrIN7content11WebContentsESt14default_deleteIS3_EE@Qt_6 6.6.0
 _ZN15QtWebEngineCore18WebContentsAdapterC1Ev@Qt_6 6.6.0
 _ZN15QtWebEngineCore18WebContentsAdapterC2ESt10unique_ptrIN7content11WebContentsESt14default_deleteIS3_EE@Qt_6 6.6.0
 _ZN15QtWebEngineCore18WebContentsAdapterC2Ev@Qt_6 6.6.0
 _ZN15QtWebEngineCore18WebContentsAdapterD1Ev@Qt_6 6.6.0
 _ZN15QtWebEngineCore18WebContentsAdapterD2Ev@Qt_6 6.6.0
 _ZN15QtWebEngineCore20FilePickerController11nameFiltersERK5QListI7QStringE@Qt_6 6.6.0
 _ZN15QtWebEngineCore20FilePickerController11qt_metacallEN11QMetaObject4CallEiPPv@Qt_6 6.6.0
 _ZN15QtWebEngineCore20FilePickerController11qt_metacastEPKc@Qt_6 6.6.0
 _ZN15QtWebEngineCore20FilePickerController16staticMetaObjectE@Qt_6 6.6.0
 _ZN15QtWebEngineCore20FilePickerController22filesSelectedInChooserERK5QListI7QStringE@Qt_6 6.6.0
 _ZN15QtWebEngineCore20FilePickerController8acceptedERK5QListI7QStringE@Qt_6 6.6.0
 _ZN15QtWebEngineCore20FilePickerController8acceptedERK8QVariant@Qt_6 6.6.0
 _ZN15QtWebEngineCore20FilePickerController8rejectedEv@Qt_6 6.6.0
 _ZN15QtWebEngineCore20FilePickerControllerC1EPNS_27FilePickerControllerPrivateEP7QObject@Qt_6 6.6.0
 _ZN15QtWebEngineCore20FilePickerControllerC2EPNS_27FilePickerControllerPrivateEP7QObject@Qt_6 6.6.0
 _ZN15QtWebEngineCore20FilePickerControllerD0Ev@Qt_6 6.6.0
 _ZN15QtWebEngineCore20FilePickerControllerD1Ev@Qt_6 6.6.0
 _ZN15QtWebEngineCore20FilePickerControllerD2Ev@Qt_6 6.6.0
 _ZN15QtWebEngineCore20ProfileAdapterClient31downloadInterruptReasonToStringENS0_23DownloadInterruptReasonE@Qt_6 6.6.0
 _ZN15QtWebEngineCore21VisitedLinksManagerQt24deleteAllVisitedLinkDataEv@Qt_6 6.6.0
 _ZN15QtWebEngineCore21VisitedLinksManagerQt28deleteVisitedLinkDataForUrlsERK5QListI4QUrlE@Qt_6 6.6.0
 _ZN15QtWebEngineCore21VisitedLinksManagerQt6addUrlERK4GURL@Qt_6 6.6.0
 _ZN15QtWebEngineCore21VisitedLinksManagerQtC1EPNS_9ProfileQtEb@Qt_6 6.6.0
 _ZN15QtWebEngineCore21VisitedLinksManagerQtC2EPNS_9ProfileQtEb@Qt_6 6.6.0
 _ZN15QtWebEngineCore21VisitedLinksManagerQtD0Ev@Qt_6 6.6.0
 _ZN15QtWebEngineCore21VisitedLinksManagerQtD1Ev@Qt_6 6.6.0
 _ZN15QtWebEngineCore21VisitedLinksManagerQtD2Ev@Qt_6 6.6.0
 _ZN15QtWebEngineCore22ColorChooserController11qt_metacallEN11QMetaObject4CallEiPPv@Qt_6 6.6.0
 _ZN15QtWebEngineCore22ColorChooserController11qt_metacastEPKc@Qt_6 6.6.0
 _ZN15QtWebEngineCore22ColorChooserController16staticMetaObjectE@Qt_6 6.6.0
 _ZN15QtWebEngineCore22ColorChooserController17didEndColorDialogEv@Qt_6 6.6.0
 _ZN15QtWebEngineCore22ColorChooserController27didChooseColorInColorDialogERK6QColor@Qt_6 6.6.0
 _ZN15QtWebEngineCore22ColorChooserController6acceptERK6QColor@Qt_6 6.6.0
 _ZN15QtWebEngineCore22ColorChooserController6acceptERK8QVariant@Qt_6 6.6.0
 _ZN15QtWebEngineCore22ColorChooserController6rejectEv@Qt_6 6.6.0
 _ZN15QtWebEngineCore22ColorChooserControllerC1EPNS_29ColorChooserControllerPrivateE@Qt_6 6.6.0
 _ZN15QtWebEngineCore22ColorChooserControllerC2EPNS_29ColorChooserControllerPrivateE@Qt_6 6.6.0
 _ZN15QtWebEngineCore22ColorChooserControllerD0Ev@Qt_6 6.6.0
 _ZN15QtWebEngineCore22ColorChooserControllerD1Ev@Qt_6 6.6.0
 _ZN15QtWebEngineCore22ColorChooserControllerD2Ev@Qt_6 6.6.0
 _ZN15QtWebEngineCore23AutofillPopupController11qt_metacallEN11QMetaObject4CallEiPPv@Qt_6 6.6.0
 _ZN15QtWebEngineCore23AutofillPopupController11qt_metacastEPKc@Qt_6 6.6.0
 _ZN15QtWebEngineCore23AutofillPopupController11updateModelEv@Qt_6 6.6.0
 _ZN15QtWebEngineCore23AutofillPopupController15setCurrentIndexERK11QModelIndex@Qt_6 6.6.0
 _ZN15QtWebEngineCore23AutofillPopupController16acceptSuggestionEv@Qt_6 6.6.0
 _ZN15QtWebEngineCore23AutofillPopupController16notifyPopupShownEv@Qt_6 6.6.0
 _ZN15QtWebEngineCore23AutofillPopupController16selectSuggestionEi@Qt_6 6.6.0
 _ZN15QtWebEngineCore23AutofillPopupController16staticMetaObjectE@Qt_6 6.6.0
 _ZN15QtWebEngineCore23AutofillPopupController17notifyPopupHiddenEv@Qt_6 6.6.0
 _ZN15QtWebEngineCore23AutofillPopupController19currentIndexChangedERK11QModelIndex@Qt_6 6.6.0
 _ZN15QtWebEngineCore23AutofillPopupController20selectLastSuggestionEv@Qt_6 6.6.0
 _ZN15QtWebEngineCore23AutofillPopupController20selectNextSuggestionEv@Qt_6 6.6.0
 _ZN15QtWebEngineCore23AutofillPopupController21selectFirstSuggestionEv@Qt_6 6.6.0
 _ZN15QtWebEngineCore23AutofillPopupController24selectPreviousSuggestionEv@Qt_6 6.6.0
 _ZN15QtWebEngineCore23AutofillPopupControllerC1EPNS_30AutofillPopupControllerPrivateE@Qt_6 6.6.0
 _ZN15QtWebEngineCore23AutofillPopupControllerC2EPNS_30AutofillPopupControllerPrivateE@Qt_6 6.6.0
 _ZN15QtWebEngineCore23AutofillPopupControllerD0Ev@Qt_6 6.6.0
 _ZN15QtWebEngineCore23AutofillPopupControllerD1Ev@Qt_6 6.6.0
 _ZN15QtWebEngineCore23AutofillPopupControllerD2Ev@Qt_6 6.6.0
 _ZN15QtWebEngineCore23CookieMonsterDelegateQt12deleteCookieERK14QNetworkCookieRK4QUrl@Qt_6 6.6.0
 _ZN15QtWebEngineCore23CookieMonsterDelegateQt12setHasFilterEb@Qt_6 6.6.0
 _ZN15QtWebEngineCore23CookieMonsterDelegateQt13getAllCookiesEv@Qt_6 6.6.0
 _ZN15QtWebEngineCore23CookieMonsterDelegateQt15OnCookieChangedERKN3net16CookieChangeInfoE@Qt_6 6.6.0
 _ZN15QtWebEngineCore23CookieMonsterDelegateQt16deleteAllCookiesEv@Qt_6 6.6.0
 _ZN15QtWebEngineCore23CookieMonsterDelegateQt16hasCookieMonsterEv@Qt_6 6.6.0
 _ZN15QtWebEngineCore23CookieMonsterDelegateQt20deleteSessionCookiesEv@Qt_6 6.6.0
 _ZN15QtWebEngineCore23CookieMonsterDelegateQt20setMojoCookieManagerEN4mojo13PendingRemoteIN7network5mojom13CookieManagerEEE@Qt_6 6.6.0
 _ZN15QtWebEngineCore23CookieMonsterDelegateQt22unsetMojoCookieManagerEv@Qt_6 6.6.0
 _ZN15QtWebEngineCore23CookieMonsterDelegateQt8AddStoreEPN3net11CookieStoreE@Qt_6 6.6.0
 _ZN15QtWebEngineCore23CookieMonsterDelegateQt9setClientEP21QWebEngineCookieStore@Qt_6 6.6.0
 _ZN15QtWebEngineCore23CookieMonsterDelegateQt9setCookieERK14QNetworkCookieRK4QUrl@Qt_6 6.6.0
 _ZN15QtWebEngineCore23CookieMonsterDelegateQtC1Ev@Qt_6 6.6.0
 _ZN15QtWebEngineCore23CookieMonsterDelegateQtC2Ev@Qt_6 6.6.0
 _ZN15QtWebEngineCore23CookieMonsterDelegateQtD1Ev@Qt_6 6.6.0
 _ZN15QtWebEngineCore23CookieMonsterDelegateQtD2Ev@Qt_6 6.6.0
 _ZN15QtWebEngineCore23PdfiumDocumentWrapperQt12pageAsQImageEmii@Qt_6 6.6.0
 _ZN15QtWebEngineCore23PdfiumDocumentWrapperQt14m_libraryUsersE@Qt_6 6.6.0
 _ZN15QtWebEngineCore23PdfiumDocumentWrapperQt8pageSizeEm@Qt_6 6.6.0
 _ZN15QtWebEngineCore23PdfiumDocumentWrapperQtC1EPKvmPKc@Qt_6 6.6.0
 _ZN15QtWebEngineCore23PdfiumDocumentWrapperQtC2EPKvmPKc@Qt_6 6.6.0
 _ZN15QtWebEngineCore23PdfiumDocumentWrapperQtD0Ev@Qt_6 6.6.0
 _ZN15QtWebEngineCore23PdfiumDocumentWrapperQtD1Ev@Qt_6 6.6.0
 _ZN15QtWebEngineCore23PdfiumDocumentWrapperQtD2Ev@Qt_6 6.6.0
 _ZN15QtWebEngineCore23RenderViewContextMenuQt13canViewSourceEv@Qt_6 6.6.0
 _ZN15QtWebEngineCore23RenderViewContextMenuQt14appendCopyItemEv@Qt_6 6.6.0
 _ZN15QtWebEngineCore23RenderViewContextMenuQt15appendLinkItemsEv@Qt_6 6.6.0
 _ZN15QtWebEngineCore23RenderViewContextMenuQt15appendPageItemsEv@Qt_6 6.6.0
 _ZN15QtWebEngineCore23RenderViewContextMenuQt15getMenuItemNameENS0_15ContextMenuItemE@Qt_6 6.6.0
 _ZN15QtWebEngineCore23RenderViewContextMenuQt16appendImageItemsEv@Qt_6 6.6.0
 _ZN15QtWebEngineCore23RenderViewContextMenuQt16appendMediaItemsEv@Qt_6 6.6.0
 _ZN15QtWebEngineCore23RenderViewContextMenuQt17appendCanvasItemsEv@Qt_6 6.6.0
 _ZN15QtWebEngineCore23RenderViewContextMenuQt19appendEditableItemsEv@Qt_6 6.6.0
 _ZN15QtWebEngineCore23RenderViewContextMenuQt19appendSeparatorItemEv@Qt_6 6.6.0
 _ZN15QtWebEngineCore23RenderViewContextMenuQt20appendDeveloperItemsEv@Qt_6 6.6.0
 _ZN15QtWebEngineCore23RenderViewContextMenuQt24appendExitFullscreenItemEv@Qt_6 6.6.0
 _ZN15QtWebEngineCore23RenderViewContextMenuQt29appendSpellingSuggestionItemsEv@Qt_6 6.6.0
 _ZN15QtWebEngineCore23RenderViewContextMenuQt8initMenuEv@Qt_6 6.6.0
 _ZN15QtWebEngineCore23RenderViewContextMenuQtC1EP28QWebEngineContextMenuRequest@Qt_6 6.6.0
 _ZN15QtWebEngineCore23RenderViewContextMenuQtC2EP28QWebEngineContextMenuRequest@Qt_6 6.6.0
 _ZN15QtWebEngineCore24WebContentsAdapterClient23renderProcessExitStatusEi@Qt_6 6.6.0
 _ZN15QtWebEngineCore26CertificateErrorController10deactivateEv@Qt_6 6.6.0
 _ZN15QtWebEngineCore26CertificateErrorController5deferEv@Qt_6 6.6.0
 _ZN15QtWebEngineCore26CertificateErrorController6acceptEb@Qt_6 6.6.0
 _ZN15QtWebEngineCore26CertificateErrorControllerC1EiRKN3net7SSLInfoERK4GURLbN4base12OnceCallbackIFvN7content28CertificateRequestResultTypeEEEE@Qt_6 6.6.0
 _ZN15QtWebEngineCore26CertificateErrorControllerC2EiRKN3net7SSLInfoERK4GURLbN4base12OnceCallbackIFvN7content28CertificateRequestResultTypeEEEE@Qt_6 6.6.0
 _ZN15QtWebEngineCore26CertificateErrorControllerD1Ev@Qt_6 6.6.0
 _ZN15QtWebEngineCore26CertificateErrorControllerD2Ev@Qt_6 6.6.0
 _ZN15QtWebEngineCore26ClientCertSelectController10selectNoneEv@Qt_6 6.6.0
 _ZN15QtWebEngineCore26ClientCertSelectController6selectERK15QSslCertificate@Qt_6 6.6.0
 _ZN15QtWebEngineCore26ClientCertSelectController6selectEi@Qt_6 6.6.0
 _ZN15QtWebEngineCore26ClientCertSelectControllerC1EPN3net18SSLCertRequestInfoESt6vectorISt10unique_ptrINS1_18ClientCertIdentityESt14default_deleteIS6_EESaIS9_EES5_IN7content25ClientCertificateDelegateES7_ISD_EE@Qt_6 6.6.0
 _ZN15QtWebEngineCore26ClientCertSelectControllerC2EPN3net18SSLCertRequestInfoESt6vectorISt10unique_ptrINS1_18ClientCertIdentityESt14default_deleteIS6_EESaIS9_EES5_IN7content25ClientCertificateDelegateES7_ISD_EE@Qt_6 6.6.0
 _ZN15QtWebEngineCore26ClientCertSelectControllerD1Ev@Qt_6 6.6.0
 _ZN15QtWebEngineCore26ClientCertSelectControllerD2Ev@Qt_6 6.6.0
 _ZN15QtWebEngineCore26JavaScriptDialogController11qt_metacallEN11QMetaObject4CallEiPPv@Qt_6 6.6.0
 _ZN15QtWebEngineCore26JavaScriptDialogController11qt_metacastEPKc@Qt_6 6.6.0
 _ZN15QtWebEngineCore26JavaScriptDialogController12textProvidedERK7QString@Qt_6 6.6.0
 _ZN15QtWebEngineCore26JavaScriptDialogController16staticMetaObjectE@Qt_6 6.6.0
 _ZN15QtWebEngineCore26JavaScriptDialogController20dialogCloseRequestedEv@Qt_6 6.6.0
 _ZN15QtWebEngineCore26JavaScriptDialogController6acceptEv@Qt_6 6.6.0
 _ZN15QtWebEngineCore26JavaScriptDialogController6rejectEv@Qt_6 6.6.0
 _ZN15QtWebEngineCore26JavaScriptDialogControllerC1EPNS_33JavaScriptDialogControllerPrivateE@Qt_6 6.6.0
 _ZN15QtWebEngineCore26JavaScriptDialogControllerC2EPNS_33JavaScriptDialogControllerPrivateE@Qt_6 6.6.0
 _ZN15QtWebEngineCore26JavaScriptDialogControllerD0Ev@Qt_6 6.6.0
 _ZN15QtWebEngineCore26JavaScriptDialogControllerD1Ev@Qt_6 6.6.0
 _ZN15QtWebEngineCore26JavaScriptDialogControllerD2Ev@Qt_6 6.6.0
 _ZN15QtWebEngineCore26UserNotificationController17closeNotificationEv@Qt_6 6.6.0
 _ZN15QtWebEngineCore26UserNotificationController18notificationClosedEv@Qt_6 6.6.0
 _ZN15QtWebEngineCore26UserNotificationController19notificationClickedEv@Qt_6 6.6.0
 _ZN15QtWebEngineCore26UserNotificationController21notificationDisplayedEv@Qt_6 6.6.0
 _ZN15QtWebEngineCore26UserNotificationController6clientEv@Qt_6 6.6.0
 _ZN15QtWebEngineCore26UserNotificationController9setClientEPNS0_6ClientE@Qt_6 6.6.0
 _ZN15QtWebEngineCore26UserNotificationControllerC1ERKN5blink24PlatformNotificationDataERKNS1_21NotificationResourcesERK4GURLPNS0_8DelegateE@Qt_6 6.6.0
 _ZN15QtWebEngineCore26UserNotificationControllerC2ERKN5blink24PlatformNotificationDataERKNS1_21NotificationResourcesERK4GURLPNS0_8DelegateE@Qt_6 6.6.0
 _ZN15QtWebEngineCore26UserNotificationControllerD1Ev@Qt_6 6.6.0
 _ZN15QtWebEngineCore26UserNotificationControllerD2Ev@Qt_6 6.6.0
 _ZN15QtWebEngineCore26UserResourceControllerHost13addUserScriptERKNS_10UserScriptEPNS_18WebContentsAdapterE@Qt_6 6.6.0
 _ZN15QtWebEngineCore26UserResourceControllerHost15clearAllScriptsEPNS_18WebContentsAdapterE@Qt_6 6.6.0
 _ZN15QtWebEngineCore26UserResourceControllerHost16removeUserScriptERKNS_10UserScriptEPNS_18WebContentsAdapterE@Qt_6 6.6.0
 _ZN15QtWebEngineCore26UserResourceControllerHost20webContentsDestroyedEPN7content11WebContentsE@Qt_6 6.6.0
 _ZN15QtWebEngineCore26UserResourceControllerHost25WebContentsObserverHelper18RenderFrameCreatedEPN7content15RenderFrameHostE@Qt_6 6.6.0
 _ZN15QtWebEngineCore26UserResourceControllerHost25WebContentsObserverHelper18RenderFrameDeletedEPN7content15RenderFrameHostE@Qt_6 6.6.0
 _ZN15QtWebEngineCore26UserResourceControllerHost25WebContentsObserverHelper20WebContentsDestroyedEv@Qt_6 6.6.0
 _ZN15QtWebEngineCore26UserResourceControllerHost25WebContentsObserverHelper22RenderFrameHostChangedEPN7content15RenderFrameHostES4_@Qt_6 6.6.0
 _ZN15QtWebEngineCore26UserResourceControllerHost25WebContentsObserverHelperC1EPS0_PN7content11WebContentsE@Qt_6 6.6.0
 _ZN15QtWebEngineCore26UserResourceControllerHost25WebContentsObserverHelperC2EPS0_PN7content11WebContentsE@Qt_6 6.6.0
 _ZN15QtWebEngineCore26UserResourceControllerHost27RenderProcessObserverHelper26RenderProcessHostDestroyedEPN7content17RenderProcessHostE@Qt_6 6.6.0
 _ZN15QtWebEngineCore26UserResourceControllerHost27RenderProcessObserverHelperC1EPS0_@Qt_6 6.6.0
 _ZN15QtWebEngineCore26UserResourceControllerHost27RenderProcessObserverHelperC2EPS0_@Qt_6 6.6.0
 _ZN15QtWebEngineCore26UserResourceControllerHost28renderProcessStartedWithHostEPN7content17RenderProcessHostE@Qt_6 6.6.0
 _ZN15QtWebEngineCore26UserResourceControllerHost36GetUserResourceControllerRenderFrameEPN7content15RenderFrameHostE@Qt_6 6.6.0
 _ZN15QtWebEngineCore26UserResourceControllerHost7reserveEPNS_18WebContentsAdapterEi@Qt_6 6.6.0
 _ZN15QtWebEngineCore26UserResourceControllerHostC1Ev@Qt_6 6.6.0
 _ZN15QtWebEngineCore26UserResourceControllerHostC2Ev@Qt_6 6.6.0
 _ZN15QtWebEngineCore26UserResourceControllerHostD1Ev@Qt_6 6.6.0
 _ZN15QtWebEngineCore26UserResourceControllerHostD2Ev@Qt_6 6.6.0
 _ZN15QtWebEngineCore27URLRequestCustomJobDelegate11qt_metacallEN11QMetaObject4CallEiPPv@Qt_6 6.6.0
 _ZN15QtWebEngineCore27URLRequestCustomJobDelegate11qt_metacastEPKc@Qt_6 6.6.0
 _ZN15QtWebEngineCore27URLRequestCustomJobDelegate13slotReadyReadEv@Qt_6 6.6.0
 _ZN15QtWebEngineCore27URLRequestCustomJobDelegate16staticMetaObjectE@Qt_6 6.6.0
 _ZN15QtWebEngineCore27URLRequestCustomJobDelegate28setAdditionalResponseHeadersERK9QMultiMapI10QByteArrayS2_E@Qt_6 6.6.0
 _ZN15QtWebEngineCore27URLRequestCustomJobDelegate4failENS0_5ErrorE@Qt_6 6.6.0
 _ZN15QtWebEngineCore27URLRequestCustomJobDelegate5abortEv@Qt_6 6.6.0
 _ZN15QtWebEngineCore27URLRequestCustomJobDelegate5replyERK10QByteArrayP9QIODevice@Qt_6 6.6.0
 _ZN15QtWebEngineCore27URLRequestCustomJobDelegate8redirectERK4QUrl@Qt_6 6.6.0
 _ZN15QtWebEngineCore27URLRequestCustomJobDelegateC1EPNS_24URLRequestCustomJobProxyERK4QUrlRK10QByteArrayS5_RK4QMapIS6_S6_E@Qt_6 6.6.0
 _ZN15QtWebEngineCore27URLRequestCustomJobDelegateC2EPNS_24URLRequestCustomJobProxyERK4QUrlRK10QByteArrayS5_RK4QMapIS6_S6_E@Qt_6 6.6.0
 _ZN15QtWebEngineCore27URLRequestCustomJobDelegateD0Ev@Qt_6 6.6.0
 _ZN15QtWebEngineCore27URLRequestCustomJobDelegateD1Ev@Qt_6 6.6.0
 _ZN15QtWebEngineCore27URLRequestCustomJobDelegateD2Ev@Qt_6 6.6.0
 _ZN15QtWebEngineCore28TouchSelectionMenuController11buttonCountEv@Qt_6 6.6.0
 _ZN15QtWebEngineCore28TouchSelectionMenuController11qt_metacallEN11QMetaObject4CallEiPPv@Qt_6 6.6.0
 _ZN15QtWebEngineCore28TouchSelectionMenuController11qt_metacastEPKc@Qt_6 6.6.0
 _ZN15QtWebEngineCore28TouchSelectionMenuController14runContextMenuEv@Qt_6 6.6.0
 _ZN15QtWebEngineCore28TouchSelectionMenuController16availableActionsEv@Qt_6 6.6.0
 _ZN15QtWebEngineCore28TouchSelectionMenuController16isCommandEnabledENS0_25TouchSelectionCommandFlagE@Qt_6 6.6.0
 _ZN15QtWebEngineCore28TouchSelectionMenuController16staticMetaObjectE@Qt_6 6.6.0
 _ZN15QtWebEngineCore28TouchSelectionMenuController3cutEv@Qt_6 6.6.0
 _ZN15QtWebEngineCore28TouchSelectionMenuController4copyEv@Qt_6 6.6.0
 _ZN15QtWebEngineCore28TouchSelectionMenuController5pasteEv@Qt_6 6.6.0
 _ZN15QtWebEngineCore28TouchSelectionMenuControllerC1EPNS_32TouchSelectionControllerClientQtE@Qt_6 6.6.0
 _ZN15QtWebEngineCore28TouchSelectionMenuControllerC2EPNS_32TouchSelectionControllerClientQtE@Qt_6 6.6.0
 _ZN15QtWebEngineCore28TouchSelectionMenuControllerD0Ev@Qt_6 6.6.0
 _ZN15QtWebEngineCore28TouchSelectionMenuControllerD1Ev@Qt_6 6.6.0
 _ZN15QtWebEngineCore28TouchSelectionMenuControllerD2Ev@Qt_6 6.6.0
 _ZN15QtWebEngineCore30AuthenticationDialogController11qt_metacallEN11QMetaObject4CallEiPPv@Qt_6 6.6.0
 _ZN15QtWebEngineCore30AuthenticationDialogController11qt_metacastEPKc@Qt_6 6.6.0
 _ZN15QtWebEngineCore30AuthenticationDialogController16staticMetaObjectE@Qt_6 6.6.0
 _ZN15QtWebEngineCore30AuthenticationDialogController6acceptERK7QStringS3_@Qt_6 6.6.0
 _ZN15QtWebEngineCore30AuthenticationDialogController6rejectEv@Qt_6 6.6.0
 _ZN15QtWebEngineCore30AuthenticationDialogControllerC1EPNS_37AuthenticationDialogControllerPrivateE@Qt_6 6.6.0
 _ZN15QtWebEngineCore30AuthenticationDialogControllerC2EPNS_37AuthenticationDialogControllerPrivateE@Qt_6 6.6.0
 _ZN15QtWebEngineCore30AuthenticationDialogControllerD0Ev@Qt_6 6.6.0
 _ZN15QtWebEngineCore30AuthenticationDialogControllerD1Ev@Qt_6 6.6.0
 _ZN15QtWebEngineCore30AuthenticationDialogControllerD2Ev@Qt_6 6.6.0
 _ZN15QtWebEngineCore34RenderWidgetHostViewQtDelegateItem10itemChangeEN10QQuickItem10ItemChangeERKNS1_14ItemChangeDataE@Qt_6 6.6.0
 _ZN15QtWebEngineCore34RenderWidgetHostViewQtDelegateItem10touchEventEP11QTouchEvent@Qt_6 6.6.0
 _ZN15QtWebEngineCore34RenderWidgetHostViewQtDelegateItem10wheelEventEP11QWheelEvent@Qt_6 6.6.0
 _ZN15QtWebEngineCore34RenderWidgetHostViewQtDelegateItem11initAsPopupERK5QRect@Qt_6 6.6.0
 _ZN15QtWebEngineCore34RenderWidgetHostViewQtDelegateItem11qt_metacallEN11QMetaObject4CallEiPPv@Qt_6 6.6.0
 _ZN15QtWebEngineCore34RenderWidgetHostViewQtDelegateItem11qt_metacastEPKc@Qt_6 6.6.0
 _ZN15QtWebEngineCore34RenderWidgetHostViewQtDelegateItem11readyToSwapEv@Qt_6 6.6.0
 _ZN15QtWebEngineCore34RenderWidgetHostViewQtDelegateItem11unlockMouseEv@Qt_6 6.6.0
 _ZN15QtWebEngineCore34RenderWidgetHostViewQtDelegateItem12focusInEventEP11QFocusEvent@Qt_6 6.6.0
 _ZN15QtWebEngineCore34RenderWidgetHostViewQtDelegateItem12updateCursorERK7QCursor@Qt_6 6.6.0
 _ZN15QtWebEngineCore34RenderWidgetHostViewQtDelegateItem13focusOutEventEP11QFocusEvent@Qt_6 6.6.0
 _ZN15QtWebEngineCore34RenderWidgetHostViewQtDelegateItem13keyPressEventEP9QKeyEvent@Qt_6 6.6.0
 _ZN15QtWebEngineCore34RenderWidgetHostViewQtDelegateItem13setClearColorERK6QColor@Qt_6 6.6.0
 _ZN15QtWebEngineCore34RenderWidgetHostViewQtDelegateItem14geometryChangeERK6QRectFS3_@Qt_6 6.6.0
 _ZN15QtWebEngineCore34RenderWidgetHostViewQtDelegateItem14hoverMoveEventEP11QHoverEvent@Qt_6 6.6.0
 _ZN15QtWebEngineCore34RenderWidgetHostViewQtDelegateItem14mouseMoveEventEP11QMouseEvent@Qt_6 6.6.0
 _ZN15QtWebEngineCore34RenderWidgetHostViewQtDelegateItem15hoverLeaveEventEP11QHoverEvent@Qt_6 6.6.0
 _ZN15QtWebEngineCore34RenderWidgetHostViewQtDelegateItem15keyReleaseEventEP9QKeyEvent@Qt_6 6.6.0
 _ZN15QtWebEngineCore34RenderWidgetHostViewQtDelegateItem15mousePressEventEP11QMouseEvent@Qt_6 6.6.0
 _ZN15QtWebEngineCore34RenderWidgetHostViewQtDelegateItem15onAfterFrameEndEv@Qt_6 6.6.0
 _ZN15QtWebEngineCore34RenderWidgetHostViewQtDelegateItem15updatePaintNodeEP7QSGNodePN10QQuickItem19UpdatePaintNodeDataE@Qt_6 6.6.0
 _ZN15QtWebEngineCore34RenderWidgetHostViewQtDelegateItem16hasKeyboardFocusEv@Qt_6 6.6.0
 _ZN15QtWebEngineCore34RenderWidgetHostViewQtDelegateItem16inputMethodEventEP17QInputMethodEvent@Qt_6 6.6.0
 _ZN15QtWebEngineCore34RenderWidgetHostViewQtDelegateItem16setKeyboardFocusEv@Qt_6 6.6.0
 _ZN15QtWebEngineCore34RenderWidgetHostViewQtDelegateItem16staticMetaObjectE@Qt_6 6.6.0
 _ZN15QtWebEngineCore34RenderWidgetHostViewQtDelegateItem17mouseReleaseEventEP11QMouseEvent@Qt_6 6.6.0
 _ZN15QtWebEngineCore34RenderWidgetHostViewQtDelegateItem17onBeforeRenderingEv@Qt_6 6.6.0
 _ZN15QtWebEngineCore34RenderWidgetHostViewQtDelegateItem17setWidgetDelegateEPNS_14WidgetDelegateE@Qt_6 6.6.0
 _ZN15QtWebEngineCore34RenderWidgetHostViewQtDelegateItem18onWindowPosChangedEv@Qt_6 6.6.0
 _ZN15QtWebEngineCore34RenderWidgetHostViewQtDelegateItem19setInputMethodHintsE6QFlagsIN2Qt15InputMethodHintEE@Qt_6 6.6.0
 _ZN15QtWebEngineCore34RenderWidgetHostViewQtDelegateItem19unhandledWheelEventEP11QWheelEvent@Qt_6 6.6.0
 _ZN15QtWebEngineCore34RenderWidgetHostViewQtDelegateItem20adapterClientChangedEPNS_24WebContentsAdapterClientE@Qt_6 6.6.0
 _ZN15QtWebEngineCore34RenderWidgetHostViewQtDelegateItem23inputMethodStateChangedEbb@Qt_6 6.6.0
 _ZN15QtWebEngineCore34RenderWidgetHostViewQtDelegateItem23releaseTextureResourcesEv@Qt_6 6.6.0
 _ZN15QtWebEngineCore34RenderWidgetHostViewQtDelegateItem27updateAdapterClientIfNeededEPNS_24WebContentsAdapterClientE@Qt_6 6.6.0
 _ZN15QtWebEngineCore34RenderWidgetHostViewQtDelegateItem4hideEv@Qt_6 6.6.0
 _ZN15QtWebEngineCore34RenderWidgetHostViewQtDelegateItem4moveERK6QPoint@Qt_6 6.6.0
 _ZN15QtWebEngineCore34RenderWidgetHostViewQtDelegateItem4showEv@Qt_6 6.6.0
 _ZN15QtWebEngineCore34RenderWidgetHostViewQtDelegateItem5eventEP6QEvent@Qt_6 6.6.0
 _ZN15QtWebEngineCore34RenderWidgetHostViewQtDelegateItem6onHideEv@Qt_6 6.6.0
 _ZN15QtWebEngineCore34RenderWidgetHostViewQtDelegateItem6resizeEii@Qt_6 6.6.0
 _ZN15QtWebEngineCore34RenderWidgetHostViewQtDelegateItem9lockMouseEv@Qt_6 6.6.0
 _ZN15QtWebEngineCore34RenderWidgetHostViewQtDelegateItemC1EPNS_36RenderWidgetHostViewQtDelegateClientEb@Qt_6 6.6.0
 _ZN15QtWebEngineCore34RenderWidgetHostViewQtDelegateItemC2EPNS_36RenderWidgetHostViewQtDelegateClientEb@Qt_6 6.6.0
 _ZN15QtWebEngineCore34RenderWidgetHostViewQtDelegateItemD0Ev@Qt_6 6.6.0
 _ZN15QtWebEngineCore34RenderWidgetHostViewQtDelegateItemD1Ev@Qt_6 6.6.0
 _ZN15QtWebEngineCore34RenderWidgetHostViewQtDelegateItemD2Ev@Qt_6 6.6.0
 _ZN15QtWebEngineCore36RenderWidgetHostViewQtDelegateClient10closePopupEv@Qt_6 6.6.0
 _ZN15QtWebEngineCore36RenderWidgetHostViewQtDelegateClient11notifyShownEv@Qt_6 6.6.0
 _ZN15QtWebEngineCore36RenderWidgetHostViewQtDelegateClient12compositorIdEv@Qt_6 6.6.0
 _ZN15QtWebEngineCore36RenderWidgetHostViewQtDelegateClient12forwardEventEP6QEvent@Qt_6 6.6.0
 _ZN15QtWebEngineCore36RenderWidgetHostViewQtDelegateClient12notifyHiddenEv@Qt_6 6.6.0
 _ZN15QtWebEngineCore36RenderWidgetHostViewQtDelegateClient14handleKeyEventEP9QKeyEvent@Qt_6 6.6.0
 _ZN15QtWebEngineCore36RenderWidgetHostViewQtDelegateClient16handleFocusEventEP11QFocusEvent@Qt_6 6.6.0
 _ZN15QtWebEngineCore36RenderWidgetHostViewQtDelegateClient16handleHoverEventEP11QHoverEvent@Qt_6 6.6.0
 _ZN15QtWebEngineCore36RenderWidgetHostViewQtDelegateClient16handleMouseEventEP11QMouseEvent@Qt_6 6.6.0
 _ZN15QtWebEngineCore36RenderWidgetHostViewQtDelegateClient16handleTouchEventEP11QTouchEvent@Qt_6 6.6.0
 _ZN15QtWebEngineCore36RenderWidgetHostViewQtDelegateClient16inputMethodQueryEN2Qt16InputMethodQueryE@Qt_6 6.6.0
 _ZN15QtWebEngineCore36RenderWidgetHostViewQtDelegateClient16mapTouchPointIdsERK5QListI11QEventPointE@Qt_6 6.6.0
 _ZN15QtWebEngineCore36RenderWidgetHostViewQtDelegateClient16selectionChangedEv@Qt_6 6.6.0
 _ZN15QtWebEngineCore36RenderWidgetHostViewQtDelegateClient17handleTabletEventEP12QTabletEvent@Qt_6 6.6.0
 _ZN15QtWebEngineCore36RenderWidgetHostViewQtDelegateClient18handleGestureEventEP19QNativeGestureEvent@Qt_6 6.6.0
 (optional=templinst)_ZN15QtWebEngineCore36RenderWidgetHostViewQtDelegateClient18handlePointerEventI11QMouseEventEEvPT_@Qt_6 6.6.0
 (optional=templinst)_ZN15QtWebEngineCore36RenderWidgetHostViewQtDelegateClient18handlePointerEventI12QTabletEventEEvPT_@Qt_6 6.6.0
 _ZN15QtWebEngineCore36RenderWidgetHostViewQtDelegateClient22handleInputMethodEventEP17QInputMethodEvent@Qt_6 6.6.0
 _ZN15QtWebEngineCore36RenderWidgetHostViewQtDelegateClient23visualPropertiesChangedEv@Qt_6 6.6.0
 _ZN15QtWebEngineCore36RenderWidgetHostViewQtDelegateClient27handleInputMethodQueryEventEP22QInputMethodQueryEvent@Qt_6 6.6.0
 _ZN15QtWebEngineCore36RenderWidgetHostViewQtDelegateClient29clearPreviousTouchMotionStateEv@Qt_6 6.6.0
 _ZN15QtWebEngineCore36RenderWidgetHostViewQtDelegateClientC1EPNS_22RenderWidgetHostViewQtE@Qt_6 6.6.0
 _ZN15QtWebEngineCore36RenderWidgetHostViewQtDelegateClientC2EPNS_22RenderWidgetHostViewQtE@Qt_6 6.6.0
 _ZN16QWebEngineScript10setWorldIdEj@Qt_6 6.6.0
 _ZN16QWebEngineScript12setSourceUrlERK4QUrl@Qt_6 6.6.0
 _ZN16QWebEngineScript13setSourceCodeERK7QString@Qt_6 6.6.0
 _ZN16QWebEngineScript16staticMetaObjectE@Qt_6 6.6.0
 _ZN16QWebEngineScript17setInjectionPointENS_14InjectionPointE@Qt_6 6.6.0
 _ZN16QWebEngineScript18setRunsOnSubFramesEb@Qt_6 6.6.0
 _ZN16QWebEngineScript7setNameERK7QString@Qt_6 6.6.0
 _ZN16QWebEngineScriptC1ERKN15QtWebEngineCore10UserScriptE@Qt_6 6.6.0
 _ZN16QWebEngineScriptC1ERKS_@Qt_6 6.6.0
 _ZN16QWebEngineScriptC1Ev@Qt_6 6.6.0
 _ZN16QWebEngineScriptC2ERKN15QtWebEngineCore10UserScriptE@Qt_6 6.6.0
 _ZN16QWebEngineScriptC2ERKS_@Qt_6 6.6.0
 _ZN16QWebEngineScriptC2Ev@Qt_6 6.6.0
 _ZN16QWebEngineScriptD1Ev@Qt_6 6.6.0
 _ZN16QWebEngineScriptD2Ev@Qt_6 6.6.0
 _ZN16QWebEngineScriptaSERKS_@Qt_6 6.6.0
 _ZN17QWebEngineHistory11qt_metacallEN11QMetaObject4CallEiPPv@Qt_6 6.6.0
 _ZN17QWebEngineHistory11qt_metacastEPKc@Qt_6 6.6.0
 _ZN17QWebEngineHistory16staticMetaObjectE@Qt_6 6.6.0
 _ZN17QWebEngineHistory4backEv@Qt_6 6.6.0
 _ZN17QWebEngineHistory5clearEv@Qt_6 6.6.0
 _ZN17QWebEngineHistory5resetEv@Qt_6 6.6.0
 _ZN17QWebEngineHistory7forwardEv@Qt_6 6.6.0
 _ZN17QWebEngineHistory8goToItemERK21QWebEngineHistoryItem@Qt_6 6.6.0
 _ZN17QWebEngineHistoryD0Ev@Qt_6 6.6.0
 _ZN17QWebEngineHistoryD1Ev@Qt_6 6.6.0
 _ZN17QWebEngineHistoryD2Ev@Qt_6 6.6.0
 _ZN17QWebEngineProfile11cookieStoreEv@Qt_6 6.6.0
 _ZN17QWebEngineProfile11qt_metacallEN11QMetaObject4CallEiPPv@Qt_6 6.6.0
 _ZN17QWebEngineProfile11qt_metacastEPKc@Qt_6 6.6.0
 _ZN17QWebEngineProfile12setCachePathERK7QString@Qt_6 6.6.0
 _ZN17QWebEngineProfile14clearHttpCacheEv@Qt_6 6.6.0
 _ZN17QWebEngineProfile14defaultProfileEv@Qt_6 6.6.0
 _ZN17QWebEngineProfile15removeUrlSchemeERK10QByteArray@Qt_6 6.6.0
 _ZN17QWebEngineProfile15setDownloadPathERK7QString@Qt_6 6.6.0
 _ZN17QWebEngineProfile16setHttpCacheTypeENS_13HttpCacheTypeE@Qt_6 6.6.0
 _ZN17QWebEngineProfile16setHttpUserAgentERK7QString@Qt_6 6.6.0
 _ZN17QWebEngineProfile16staticMetaObjectE@Qt_6 6.6.0
 _ZN17QWebEngineProfile17clearVisitedLinksERK5QListI4QUrlE@Qt_6 6.6.0
 _ZN17QWebEngineProfile17downloadRequestedEP25QWebEngineDownloadRequest@Qt_6 6.6.0
 _ZN17QWebEngineProfile20clearAllVisitedLinksEv@Qt_6 6.6.0
 _ZN17QWebEngineProfile20setSpellCheckEnabledEb@Qt_6 6.6.0
 _ZN17QWebEngineProfile21notificationPresenterEv@Qt_6 6.6.0
 _ZN17QWebEngineProfile21setHttpAcceptLanguageERK7QString@Qt_6 6.6.0
 _ZN17QWebEngineProfile21setPushServiceEnabledEb@Qt_6 6.6.0
 _ZN17QWebEngineProfile22clientCertificateStoreEv@Qt_6 6.6.0
 _ZN17QWebEngineProfile22removeUrlSchemeHandlerEP26QWebEngineUrlSchemeHandler@Qt_6 6.6.0
 _ZN17QWebEngineProfile22setSpellCheckLanguagesERK5QListI7QStringE@Qt_6 6.6.0
 _ZN17QWebEngineProfile23installUrlSchemeHandlerERK10QByteArrayP26QWebEngineUrlSchemeHandler@Qt_6 6.6.0
 _ZN17QWebEngineProfile23setHttpCacheMaximumSizeEi@Qt_6 6.6.0
 _ZN17QWebEngineProfile24setNotificationPresenterESt8functionIFvSt10unique_ptrI22QWebEngineNotificationSt14default_deleteIS2_EEEE@Qt_6 6.6.0
 _ZN17QWebEngineProfile24setPersistentStoragePathERK7QString@Qt_6 6.6.0
 _ZN17QWebEngineProfile24setUrlRequestInterceptorEP31QWebEngineUrlRequestInterceptor@Qt_6 6.6.0
 _ZN17QWebEngineProfile26removeAllUrlSchemeHandlersEv@Qt_6 6.6.0
 _ZN17QWebEngineProfile26setPersistentCookiesPolicyENS_23PersistentCookiesPolicyE@Qt_6 6.6.0
 _ZN17QWebEngineProfileC1EP7QObject@Qt_6 6.6.0
 _ZN17QWebEngineProfileC1ERK7QStringP7QObject@Qt_6 6.6.0
 _ZN17QWebEngineProfileC2EP7QObject@Qt_6 6.6.0
 _ZN17QWebEngineProfileC2ERK7QStringP7QObject@Qt_6 6.6.0
 _ZN17QWebEngineProfileD0Ev@Qt_6 6.6.0
 _ZN17QWebEngineProfileD1Ev@Qt_6 6.6.0
 _ZN17QWebEngineProfileD2Ev@Qt_6 6.6.0
 _ZN18QWebEngineSettings11setFontSizeENS_8FontSizeEi@Qt_6 6.6.0
 _ZN18QWebEngineSettings12setAttributeENS_12WebAttributeEb@Qt_6 6.6.0
 _ZN18QWebEngineSettings13resetFontSizeENS_8FontSizeE@Qt_6 6.6.0
 _ZN18QWebEngineSettings13setFontFamilyENS_10FontFamilyERK7QString@Qt_6 6.6.0
 _ZN18QWebEngineSettings14resetAttributeENS_12WebAttributeE@Qt_6 6.6.0
 _ZN18QWebEngineSettings15resetFontFamilyENS_10FontFamilyE@Qt_6 6.6.0
 _ZN18QWebEngineSettings17setParentSettingsEPS_@Qt_6 6.6.0
 _ZN18QWebEngineSettings22setDefaultTextEncodingERK7QString@Qt_6 6.6.0
 _ZN18QWebEngineSettings25setUnknownUrlSchemePolicyENS_22UnknownUrlSchemePolicyE@Qt_6 6.6.0
 _ZN18QWebEngineSettings27resetUnknownUrlSchemePolicyEv@Qt_6 6.6.0
 _ZN18QWebEngineSettingsC1EPS_@Qt_6 6.6.0
 _ZN18QWebEngineSettingsC2EPS_@Qt_6 6.6.0
 _ZN18QWebEngineSettingsD1Ev@Qt_6 6.6.0
 _ZN18QWebEngineSettingsD2Ev@Qt_6 6.6.0
 _ZN19QWebEngineUrlScheme11lockSchemesEv@Qt_6 6.6.0
 _ZN19QWebEngineUrlScheme12schemeByNameERK10QByteArray@Qt_6 6.6.0
 _ZN19QWebEngineUrlScheme14registerSchemeERKS_@Qt_6 6.6.0
 _ZN19QWebEngineUrlScheme14setDefaultPortEi@Qt_6 6.6.0
 _ZN19QWebEngineUrlScheme16staticMetaObjectE@Qt_6 6.6.0
 _ZN19QWebEngineUrlScheme7setNameERK10QByteArray@Qt_6 6.6.0
 _ZN19QWebEngineUrlScheme8setFlagsE6QFlagsINS_4FlagEE@Qt_6 6.6.0
 _ZN19QWebEngineUrlScheme9setSyntaxENS_6SyntaxE@Qt_6 6.6.0
 _ZN19QWebEngineUrlSchemeC1EOS_@Qt_6 6.6.0
 _ZN19QWebEngineUrlSchemeC1EP26QWebEngineUrlSchemePrivate@Qt_6 6.6.0
 _ZN19QWebEngineUrlSchemeC1ERK10QByteArray@Qt_6 6.6.0
 _ZN19QWebEngineUrlSchemeC1ERKS_@Qt_6 6.6.0
 _ZN19QWebEngineUrlSchemeC1Ev@Qt_6 6.6.0
 _ZN19QWebEngineUrlSchemeC2EOS_@Qt_6 6.6.0
 _ZN19QWebEngineUrlSchemeC2EP26QWebEngineUrlSchemePrivate@Qt_6 6.6.0
 _ZN19QWebEngineUrlSchemeC2ERK10QByteArray@Qt_6 6.6.0
 _ZN19QWebEngineUrlSchemeC2ERKS_@Qt_6 6.6.0
 _ZN19QWebEngineUrlSchemeC2Ev@Qt_6 6.6.0
 _ZN19QWebEngineUrlSchemeD1Ev@Qt_6 6.6.0
 _ZN19QWebEngineUrlSchemeD2Ev@Qt_6 6.6.0
 _ZN19QWebEngineUrlSchemeaSEOS_@Qt_6 6.6.0
 _ZN19QWebEngineUrlSchemeaSERKS_@Qt_6 6.6.0
 _ZN21QWebEngineCookieStore11cookieAddedERK14QNetworkCookie@Qt_6 6.6.0
 _ZN21QWebEngineCookieStore11qt_metacallEN11QMetaObject4CallEiPPv@Qt_6 6.6.0
 _ZN21QWebEngineCookieStore11qt_metacastEPKc@Qt_6 6.6.0
 _ZN21QWebEngineCookieStore12deleteCookieERK14QNetworkCookieRK4QUrl@Qt_6 6.6.0
 _ZN21QWebEngineCookieStore13cookieRemovedERK14QNetworkCookie@Qt_6 6.6.0
 _ZN21QWebEngineCookieStore14loadAllCookiesEv@Qt_6 6.6.0
 _ZN21QWebEngineCookieStore15setCookieFilterEOSt8functionIFbRKNS_13FilterRequestEEE@Qt_6 6.6.0
 _ZN21QWebEngineCookieStore15setCookieFilterERKSt8functionIFbRKNS_13FilterRequestEEE@Qt_6 6.6.0
 _ZN21QWebEngineCookieStore16deleteAllCookiesEv@Qt_6 6.6.0
 _ZN21QWebEngineCookieStore16staticMetaObjectE@Qt_6 6.6.0
 _ZN21QWebEngineCookieStore20deleteSessionCookiesEv@Qt_6 6.6.0
 _ZN21QWebEngineCookieStore9setCookieERK14QNetworkCookieRK4QUrl@Qt_6 6.6.0
 _ZN21QWebEngineCookieStoreC1EP7QObject@Qt_6 6.6.0
 _ZN21QWebEngineCookieStoreC2EP7QObject@Qt_6 6.6.0
 _ZN21QWebEngineCookieStoreD0Ev@Qt_6 6.6.0
 _ZN21QWebEngineCookieStoreD1Ev@Qt_6 6.6.0
 _ZN21QWebEngineCookieStoreD2Ev@Qt_6 6.6.0
 _ZN21QWebEngineHistoryItemC1EOS_@Qt_6 6.6.0
 _ZN21QWebEngineHistoryItemC1ERKS_@Qt_6 6.6.0
 _ZN21QWebEngineHistoryItemC2EOS_@Qt_6 6.6.0
 _ZN21QWebEngineHistoryItemC2ERKS_@Qt_6 6.6.0
 _ZN21QWebEngineHistoryItemD1Ev@Qt_6 6.6.0
 _ZN21QWebEngineHistoryItemD2Ev@Qt_6 6.6.0
 _ZN21QWebEngineHistoryItemaSEOS_@Qt_6 6.6.0
 _ZN21QWebEngineHistoryItemaSERKS_@Qt_6 6.6.0
 _ZN21QWebEngineHttpRequest11postRequestERK4QUrlRK4QMapI7QStringS4_E@Qt_6 6.6.0
 _ZN21QWebEngineHttpRequest11setPostDataERK10QByteArray@Qt_6 6.6.0
 _ZN21QWebEngineHttpRequest11unsetHeaderERK10QByteArray@Qt_6 6.6.0
 _ZN21QWebEngineHttpRequest6setUrlERK4QUrl@Qt_6 6.6.0
 _ZN21QWebEngineHttpRequest9setHeaderERK10QByteArrayS2_@Qt_6 6.6.0
 _ZN21QWebEngineHttpRequest9setMethodENS_6MethodE@Qt_6 6.6.0
 _ZN21QWebEngineHttpRequestC1ERK4QUrlRKNS_6MethodE@Qt_6 6.6.0
 _ZN21QWebEngineHttpRequestC1ERKS_@Qt_6 6.6.0
 _ZN21QWebEngineHttpRequestC2ERK4QUrlRKNS_6MethodE@Qt_6 6.6.0
 _ZN21QWebEngineHttpRequestC2ERKS_@Qt_6 6.6.0
 _ZN21QWebEngineHttpRequestD1Ev@Qt_6 6.6.0
 _ZN21QWebEngineHttpRequestD2Ev@Qt_6 6.6.0
 _ZN21QWebEngineHttpRequestaSERKS_@Qt_6 6.6.0
 _ZN21QWebEngineLoadingInfo16staticMetaObjectE@Qt_6 6.6.0
 _ZN21QWebEngineLoadingInfoC1EOS_@Qt_6 6.6.0
 _ZN21QWebEngineLoadingInfoC1ERK4QUrlNS_10LoadStatusEbRK7QStringiNS_11ErrorDomainERK9QMultiMapI10QByteArrayS9_E@Qt_6 6.6.0
 _ZN21QWebEngineLoadingInfoC1ERKS_@Qt_6 6.6.0
 _ZN21QWebEngineLoadingInfoC2EOS_@Qt_6 6.6.0
 _ZN21QWebEngineLoadingInfoC2ERK4QUrlNS_10LoadStatusEbRK7QStringiNS_11ErrorDomainERK9QMultiMapI10QByteArrayS9_E@Qt_6 6.6.0
 _ZN21QWebEngineLoadingInfoC2ERKS_@Qt_6 6.6.0
 _ZN21QWebEngineLoadingInfoD1Ev@Qt_6 6.6.0
 _ZN21QWebEngineLoadingInfoD2Ev@Qt_6 6.6.0
 _ZN21QWebEngineLoadingInfoaSEOS_@Qt_6 6.6.0
 _ZN21QWebEngineLoadingInfoaSERKS_@Qt_6 6.6.0
 _ZN22QWebEngineHistoryModel11qt_metacallEN11QMetaObject4CallEiPPv@Qt_6 6.6.0
 _ZN22QWebEngineHistoryModel11qt_metacastEPKc@Qt_6 6.6.0
 _ZN22QWebEngineHistoryModel16staticMetaObjectE@Qt_6 6.6.0
 _ZN22QWebEngineHistoryModel5resetEv@Qt_6 6.6.0
 _ZN22QWebEngineHistoryModelD0Ev@Qt_6 6.6.0
 _ZN22QWebEngineHistoryModelD1Ev@Qt_6 6.6.0
 _ZN22QWebEngineHistoryModelD2Ev@Qt_6 6.6.0
 _ZN22QWebEngineNotification11qt_metacallEN11QMetaObject4CallEiPPv@Qt_6 6.6.0
 _ZN22QWebEngineNotification11qt_metacastEPKc@Qt_6 6.6.0
 _ZN22QWebEngineNotification16staticMetaObjectE@Qt_6 6.6.0
 _ZN22QWebEngineNotification6closedEv@Qt_6 6.6.0
 _ZN22QWebEngineNotificationC1ERK14QSharedPointerIN15QtWebEngineCore26UserNotificationControllerEE@Qt_6 6.6.0
 _ZN22QWebEngineNotificationC2ERK14QSharedPointerIN15QtWebEngineCore26UserNotificationControllerEE@Qt_6 6.6.0
 _ZN22QWebEngineNotificationD0Ev@Qt_6 6.6.0
 _ZN22QWebEngineNotificationD1Ev@Qt_6 6.6.0
 _ZN22QWebEngineNotificationD2Ev@Qt_6 6.6.0
 _ZN22QWebEngineQuotaRequest16staticMetaObjectE@Qt_6 6.6.0
 _ZN22QWebEngineQuotaRequest6acceptEv@Qt_6 6.6.0
 _ZN22QWebEngineQuotaRequest6rejectEv@Qt_6 6.6.0
 _ZN23QWebEngineUrlRequestJob11qt_metacallEN11QMetaObject4CallEiPPv@Qt_6 6.6.0
 _ZN23QWebEngineUrlRequestJob11qt_metacastEPKc@Qt_6 6.6.0
 _ZN23QWebEngineUrlRequestJob16staticMetaObjectE@Qt_6 6.6.0
 _ZN23QWebEngineUrlRequestJob4failENS_5ErrorE@Qt_6 6.6.0
 _ZN23QWebEngineUrlRequestJob5replyERK10QByteArrayP9QIODevice@Qt_6 6.6.0
 _ZN23QWebEngineUrlRequestJob8redirectERK4QUrl@Qt_6 6.6.0
 _ZN23QWebEngineUrlRequestJobC1EPN15QtWebEngineCore27URLRequestCustomJobDelegateE@Qt_6 6.6.0
 _ZN23QWebEngineUrlRequestJobC2EPN15QtWebEngineCore27URLRequestCustomJobDelegateE@Qt_6 6.6.0
 _ZN23QWebEngineUrlRequestJobD0Ev@Qt_6 6.6.0
 _ZN23QWebEngineUrlRequestJobD1Ev@Qt_6 6.6.0
 _ZN23QWebEngineUrlRequestJobD2Ev@Qt_6 6.6.0
 _ZN24QWebEngineFindTextResult16staticMetaObjectE@Qt_6 6.6.0
 _ZN24QWebEngineFindTextResultC1ERKS_@Qt_6 6.6.0
 _ZN24QWebEngineFindTextResultC1Eii@Qt_6 6.6.0
 _ZN24QWebEngineFindTextResultC1Ev@Qt_6 6.6.0
 _ZN24QWebEngineFindTextResultC2ERKS_@Qt_6 6.6.0
 _ZN24QWebEngineFindTextResultC2Eii@Qt_6 6.6.0
 _ZN24QWebEngineFindTextResultC2Ev@Qt_6 6.6.0
 _ZN24QWebEngineFindTextResultD1Ev@Qt_6 6.6.0
 _ZN24QWebEngineFindTextResultD2Ev@Qt_6 6.6.0
 _ZN24QWebEngineFindTextResultaSERKS_@Qt_6 6.6.0
 _ZN24QWebEngineGlobalSettings10setDnsModeENS_7DnsModeE@Qt_6 6.6.0
 _ZN24QWebEngineUrlRequestInfo12resetChangedEv@Qt_6 6.6.0
 _ZN24QWebEngineUrlRequestInfo13setHttpHeaderERK10QByteArrayS2_@Qt_6 6.6.0
 _ZN24QWebEngineUrlRequestInfo5blockEb@Qt_6 6.6.0
 _ZN24QWebEngineUrlRequestInfo8redirectERK4QUrl@Qt_6 6.6.0
 _ZN24QWebEngineUrlRequestInfoC1EOS_@Qt_6 6.6.0
 _ZN24QWebEngineUrlRequestInfoC1Ev@Qt_6 6.6.0
 _ZN24QWebEngineUrlRequestInfoC2EOS_@Qt_6 6.6.0
 _ZN24QWebEngineUrlRequestInfoC2Ev@Qt_6 6.6.0
 _ZN24QWebEngineUrlRequestInfoD1Ev@Qt_6 6.6.0
 _ZN24QWebEngineUrlRequestInfoD2Ev@Qt_6 6.6.0
 _ZN24QWebEngineUrlRequestInfoaSEOS_@Qt_6 6.6.0
 _ZN25QWebEngineDownloadRequest11qt_metacallEN11QMetaObject4CallEiPPv@Qt_6 6.6.0
 _ZN25QWebEngineDownloadRequest11qt_metacastEPKc@Qt_6 6.6.0
 _ZN25QWebEngineDownloadRequest12stateChangedENS_13DownloadStateE@Qt_6 6.6.0
 _ZN25QWebEngineDownloadRequest15isPausedChangedEv@Qt_6 6.6.0
 _ZN25QWebEngineDownloadRequest16staticMetaObjectE@Qt_6 6.6.0
 _ZN25QWebEngineDownloadRequest17isFinishedChangedEv@Qt_6 6.6.0
 _ZN25QWebEngineDownloadRequest17setSavePageFormatENS_14SavePageFormatE@Qt_6 6.6.0
 _ZN25QWebEngineDownloadRequest17totalBytesChangedEv@Qt_6 6.6.0
 _ZN25QWebEngineDownloadRequest19setDownloadFileNameERK7QString@Qt_6 6.6.0
 _ZN25QWebEngineDownloadRequest20receivedBytesChangedEv@Qt_6 6.6.0
 _ZN25QWebEngineDownloadRequest20setDownloadDirectoryERK7QString@Qt_6 6.6.0
 _ZN25QWebEngineDownloadRequest21savePageFormatChangedEv@Qt_6 6.6.0
 _ZN25QWebEngineDownloadRequest22interruptReasonChangedEv@Qt_6 6.6.0
 _ZN25QWebEngineDownloadRequest23downloadFileNameChangedEv@Qt_6 6.6.0
 _ZN25QWebEngineDownloadRequest24downloadDirectoryChangedEv@Qt_6 6.6.0
 _ZN25QWebEngineDownloadRequest5pauseEv@Qt_6 6.6.0
 _ZN25QWebEngineDownloadRequest6acceptEv@Qt_6 6.6.0
 _ZN25QWebEngineDownloadRequest6cancelEv@Qt_6 6.6.0
 _ZN25QWebEngineDownloadRequest6resumeEv@Qt_6 6.6.0
 _ZN25QWebEngineDownloadRequestD0Ev@Qt_6 6.6.0
 _ZN25QWebEngineDownloadRequestD1Ev@Qt_6 6.6.0
 _ZN25QWebEngineDownloadRequestD2Ev@Qt_6 6.6.0
 _ZN26QWebEngineCertificateError16staticMetaObjectE@Qt_6 6.6.0
 _ZN26QWebEngineCertificateError17acceptCertificateEv@Qt_6 6.6.0
 _ZN26QWebEngineCertificateError17rejectCertificateEv@Qt_6 6.6.0
 _ZN26QWebEngineCertificateError5deferEv@Qt_6 6.6.0
 _ZN26QWebEngineCertificateErrorC1ERK14QSharedPointerIN15QtWebEngineCore26CertificateErrorControllerEE@Qt_6 6.6.0
 _ZN26QWebEngineCertificateErrorC1ERKS_@Qt_6 6.6.0
 _ZN26QWebEngineCertificateErrorC2ERK14QSharedPointerIN15QtWebEngineCore26CertificateErrorControllerEE@Qt_6 6.6.0
 _ZN26QWebEngineCertificateErrorC2ERKS_@Qt_6 6.6.0
 _ZN26QWebEngineCertificateErrorD1Ev@Qt_6 6.6.0
 _ZN26QWebEngineCertificateErrorD2Ev@Qt_6 6.6.0
 _ZN26QWebEngineCertificateErroraSERKS_@Qt_6 6.6.0
 _ZN26QWebEngineNewWindowRequest11qt_metacallEN11QMetaObject4CallEiPPv@Qt_6 6.6.0
 _ZN26QWebEngineNewWindowRequest11qt_metacastEPKc@Qt_6 6.6.0
 _ZN26QWebEngineNewWindowRequest16staticMetaObjectE@Qt_6 6.6.0
 _ZN26QWebEngineNewWindowRequest6openInEP14QWebEnginePage@Qt_6 6.6.0
 _ZN26QWebEngineNewWindowRequestC1ENS_15DestinationTypeERK5QRectRK4QUrlb14QSharedPointerIN15QtWebEngineCore18WebContentsAdapterEEP7QObject@Qt_6 6.6.0
 _ZN26QWebEngineNewWindowRequestC2ENS_15DestinationTypeERK5QRectRK4QUrlb14QSharedPointerIN15QtWebEngineCore18WebContentsAdapterEEP7QObject@Qt_6 6.6.0
 _ZN26QWebEngineNewWindowRequestD0Ev@Qt_6 6.6.0
 _ZN26QWebEngineNewWindowRequestD1Ev@Qt_6 6.6.0
 _ZN26QWebEngineNewWindowRequestD2Ev@Qt_6 6.6.0
 _ZN26QWebEngineScriptCollection5clearEv@Qt_6 6.6.0
 _ZN26QWebEngineScriptCollection6insertERK16QWebEngineScript@Qt_6 6.6.0
 _ZN26QWebEngineScriptCollection6insertERK5QListI16QWebEngineScriptE@Qt_6 6.6.0
 _ZN26QWebEngineScriptCollection6removeERK16QWebEngineScript@Qt_6 6.6.0
 _ZN26QWebEngineScriptCollectionD1Ev@Qt_6 6.6.0
 _ZN26QWebEngineScriptCollectionD2Ev@Qt_6 6.6.0
 _ZN26QWebEngineUrlSchemeHandler11qt_metacallEN11QMetaObject4CallEiPPv@Qt_6 6.6.0
 _ZN26QWebEngineUrlSchemeHandler11qt_metacastEPKc@Qt_6 6.6.0
 _ZN26QWebEngineUrlSchemeHandler16staticMetaObjectE@Qt_6 6.6.0
 _ZN26QWebEngineUrlSchemeHandlerC1EP7QObject@Qt_6 6.6.0
 _ZN26QWebEngineUrlSchemeHandlerC2EP7QObject@Qt_6 6.6.0
 _ZN26QWebEngineUrlSchemeHandlerD0Ev@Qt_6 6.6.0
 _ZN26QWebEngineUrlSchemeHandlerD1Ev@Qt_6 6.6.0
 _ZN26QWebEngineUrlSchemeHandlerD2Ev@Qt_6 6.6.0
 _ZN27QWebEngineFullScreenRequest16staticMetaObjectE@Qt_6 6.6.0
 _ZN27QWebEngineFullScreenRequest6acceptEv@Qt_6 6.6.0
 _ZN27QWebEngineFullScreenRequest6rejectEv@Qt_6 6.6.0
 _ZN27QWebEngineFullScreenRequestC1EOS_@Qt_6 6.6.0
 _ZN27QWebEngineFullScreenRequestC1ERK4QUrlbRKSt8functionIFvbEE@Qt_6 6.6.0
 _ZN27QWebEngineFullScreenRequestC1ERKS_@Qt_6 6.6.0
 _ZN27QWebEngineFullScreenRequestC2EOS_@Qt_6 6.6.0
 _ZN27QWebEngineFullScreenRequestC2ERK4QUrlbRKSt8functionIFvbEE@Qt_6 6.6.0
 _ZN27QWebEngineFullScreenRequestC2ERKS_@Qt_6 6.6.0
 _ZN27QWebEngineFullScreenRequestD1Ev@Qt_6 6.6.0
 _ZN27QWebEngineFullScreenRequestD2Ev@Qt_6 6.6.0
 _ZN27QWebEngineFullScreenRequestaSEOS_@Qt_6 6.6.0
 _ZN27QWebEngineFullScreenRequestaSERKS_@Qt_6 6.6.0
 _ZN27QWebEngineNavigationRequest11qt_metacallEN11QMetaObject4CallEiPPv@Qt_6 6.6.0
 _ZN27QWebEngineNavigationRequest11qt_metacastEPKc@Qt_6 6.6.0
 _ZN27QWebEngineNavigationRequest13actionChangedEv@Qt_6 6.6.0
 _ZN27QWebEngineNavigationRequest16staticMetaObjectE@Qt_6 6.6.0
 _ZN27QWebEngineNavigationRequest6acceptEv@Qt_6 6.6.0
 _ZN27QWebEngineNavigationRequest6rejectEv@Qt_6 6.6.0
 _ZN27QWebEngineNavigationRequest9setActionENS_23NavigationRequestActionE@Qt_6 6.6.0
 _ZN27QWebEngineNavigationRequestC1ERK4QUrlNS_14NavigationTypeEbP7QObject@Qt_6 6.6.0
 _ZN27QWebEngineNavigationRequestC2ERK4QUrlNS_14NavigationTypeEbP7QObject@Qt_6 6.6.0
 _ZN27QWebEngineNavigationRequestD0Ev@Qt_6 6.6.0
 _ZN27QWebEngineNavigationRequestD1Ev@Qt_6 6.6.0
 _ZN27QWebEngineNavigationRequestD2Ev@Qt_6 6.6.0
 _ZN28QWebEngineContextMenuRequest11qt_metacallEN11QMetaObject4CallEiPPv@Qt_6 6.6.0
 _ZN28QWebEngineContextMenuRequest11qt_metacastEPKc@Qt_6 6.6.0
 _ZN28QWebEngineContextMenuRequest11setAcceptedEb@Qt_6 6.6.0
 _ZN28QWebEngineContextMenuRequest16staticMetaObjectE@Qt_6 6.6.0
 _ZN28QWebEngineContextMenuRequestD0Ev@Qt_6 6.6.0
 _ZN28QWebEngineContextMenuRequestD1Ev@Qt_6 6.6.0
 _ZN28QWebEngineContextMenuRequestD2Ev@Qt_6 6.6.0
 (optional=templinst)_ZN2gl10FromGLenumINS_10FilterModeEEET_j@Qt_6 6.6.0
 (optional=templinst)_ZN2gl10FromGLenumINS_10HandleTypeEEET_j@Qt_6 6.6.0
 (optional=templinst)_ZN2gl10FromGLenumINS_10MatrixTypeEEET_j@Qt_6 6.6.0
 (optional=templinst)_ZN2gl10FromGLenumINS_10ShaderTypeEEET_j@Qt_6 6.6.0
 (optional=templinst)_ZN2gl10FromGLenumINS_10TextureSrcEEET_j@Qt_6 6.6.0
 (optional=templinst)_ZN2gl10FromGLenumINS_11BufferUsageEEET_j@Qt_6 6.6.0
 (optional=templinst)_ZN2gl10FromGLenumINS_11HintSettingEEET_j@Qt_6 6.6.0
 (optional=templinst)_ZN2gl10FromGLenumINS_11ImageLayoutEEET_j@Qt_6 6.6.0
 (optional=templinst)_ZN2gl10FromGLenumINS_11ShadingRateEEET_j@Qt_6 6.6.0
 (optional=templinst)_ZN2gl10FromGLenumINS_11TextureTypeEEET_j@Qt_6 6.6.0
 (optional=templinst)_ZN2gl10FromGLenumINS_12CullFaceModeEEET_j@Qt_6 6.6.0
 (optional=templinst)_ZN2gl10FromGLenumINS_12ShadingModelEEET_j@Qt_6 6.6.0
 (optional=templinst)_ZN2gl10FromGLenumINS_13AlphaTestFuncEEET_j@Qt_6 6.6.0
 (optional=templinst)_ZN2gl10FromGLenumINS_13BufferBindingEEET_j@Qt_6 6.6.0
 (optional=templinst)_ZN2gl10FromGLenumINS_13TextureTargetEEET_j@Qt_6 6.6.0
 (optional=templinst)_ZN2gl10FromGLenumINS_14LightParameterEEET_j@Qt_6 6.6.0
 (optional=templinst)_ZN2gl10FromGLenumINS_14PointParameterEEET_j@Qt_6 6.6.0
 (optional=templinst)_ZN2gl10FromGLenumINS_14TextureCombineEEET_j@Qt_6 6.6.0
 (optional=templinst)_ZN2gl10FromGLenumINS_14TextureEnvModeEEET_j@Qt_6 6.6.0
 (optional=templinst)_ZN2gl10FromGLenumINS_15VertexArrayTypeEEET_j@Qt_6 6.6.0
 (optional=templinst)_ZN2gl10FromGLenumINS_16LogicalOperationEEET_j@Qt_6 6.6.0
 (optional=templinst)_ZN2gl10FromGLenumINS_16TextureEnvTargetEEET_j@Qt_6 6.6.0
 (optional=templinst)_ZN2gl10FromGLenumINS_17MaterialParameterEEET_j@Qt_6 6.6.0
 (optional=templinst)_ZN2gl10FromGLenumINS_19GraphicsResetStatusEEET_j@Qt_6 6.6.0
 (optional=templinst)_ZN2gl10FromGLenumINS_19TextureEnvParameterEEET_j@Qt_6 6.6.0
 (optional=templinst)_ZN2gl10FromGLenumINS_21ClientVertexArrayTypeEEET_j@Qt_6 6.6.0
 (optional=templinst)_ZN2gl10FromGLenumINS_25ProvokingVertexConventionEEET_j@Qt_6 6.6.0
 (optional=templinst)_ZN2gl10FromGLenumINS_7FogModeEEET_j@Qt_6 6.6.0
 (optional=templinst)_ZN2gl10FromGLenumINS_8WrapModeEEET_j@Qt_6 6.6.0
 (optional=templinst)_ZN2gl10FromGLenumINS_9QueryTypeEEET_j@Qt_6 6.6.0
 (optional=templinst)_ZN2gl10FromGLenumINS_9TextureOpEEET_j@Qt_6 6.6.0
 (optional=templinst)_ZN2v88internal13ConvertDoubleIbEET_d@Qt_6 6.6.0
 (optional=templinst)_ZN2v88internal13ConvertDoubleIdEET_d@Qt_6 6.6.0
 (optional=templinst)_ZN2v88internal13ConvertDoubleIfEET_d@Qt_6 6.6.0
 (optional=templinst)_ZN2v88internal13ConvertDoubleIiEET_d@Qt_6 6.6.0
 (optional=templinst)_ZN2v88internal13ConvertDoubleIjEET_d@Qt_6 6.6.0
 (optional=templinst)_ZN2v88internal13ConvertDoubleIlEET_d@Qt_6 6.6.0
 (optional=templinst)_ZN2v88internal13ConvertDoubleImEET_d@Qt_6 6.6.0
 _ZN31QWebEngineUrlRequestInterceptor11qt_metacallEN11QMetaObject4CallEiPPv@Qt_6 6.6.0
 _ZN31QWebEngineUrlRequestInterceptor11qt_metacastEPKc@Qt_6 6.6.0
 _ZN31QWebEngineUrlRequestInterceptor16staticMetaObjectE@Qt_6 6.6.0
 _ZN31QWebEngineUrlRequestInterceptorD0Ev@Qt_6 6.6.0
 _ZN31QWebEngineUrlRequestInterceptorD1Ev@Qt_6 6.6.0
 _ZN31QWebEngineUrlRequestInterceptorD2Ev@Qt_6 6.6.0
 _ZN32QWebEngineClientCertificateStore3addERK15QSslCertificateRK7QSslKey@Qt_6 6.6.0
 _ZN32QWebEngineClientCertificateStore5clearEv@Qt_6 6.6.0
 _ZN32QWebEngineClientCertificateStore6removeERK15QSslCertificate@Qt_6 6.6.0
 _ZN32QWebEngineClientCertificateStoreC1EPN15QtWebEngineCore26ClientCertificateStoreDataE@Qt_6 6.6.0
 _ZN32QWebEngineClientCertificateStoreC2EPN15QtWebEngineCore26ClientCertificateStoreDataE@Qt_6 6.6.0
 _ZN32QWebEngineClientCertificateStoreD1Ev@Qt_6 6.6.0
 _ZN32QWebEngineClientCertificateStoreD2Ev@Qt_6 6.6.0
 _ZN33QWebEngineFileSystemAccessRequest16staticMetaObjectE@Qt_6 6.6.0
 _ZN33QWebEngineFileSystemAccessRequest6acceptEv@Qt_6 6.6.0
 _ZN33QWebEngineFileSystemAccessRequest6rejectEv@Qt_6 6.6.0
 _ZN33QWebEngineFileSystemAccessRequestC1ERKS_@Qt_6 6.6.0
 _ZN33QWebEngineFileSystemAccessRequestC1ESt10shared_ptrIN15QtWebEngineCore43FileSystemAccessPermissionRequestControllerEE@Qt_6 6.6.0
 _ZN33QWebEngineFileSystemAccessRequestC2ERKS_@Qt_6 6.6.0
 _ZN33QWebEngineFileSystemAccessRequestC2ESt10shared_ptrIN15QtWebEngineCore43FileSystemAccessPermissionRequestControllerEE@Qt_6 6.6.0
 _ZN33QWebEngineFileSystemAccessRequestD1Ev@Qt_6 6.6.0
 _ZN33QWebEngineFileSystemAccessRequestD2Ev@Qt_6 6.6.0
 _ZN33QWebEngineFileSystemAccessRequestaSERKS_@Qt_6 6.6.0
 _ZN36QWebEngineClientCertificateSelection10selectNoneEv@Qt_6 6.6.0
 _ZN36QWebEngineClientCertificateSelection6selectERK15QSslCertificate@Qt_6 6.6.0
 _ZN36QWebEngineClientCertificateSelectionC1E14QSharedPointerIN15QtWebEngineCore26ClientCertSelectControllerEE@Qt_6 6.6.0
 _ZN36QWebEngineClientCertificateSelectionC1ERKS_@Qt_6 6.6.0
 _ZN36QWebEngineClientCertificateSelectionC2E14QSharedPointerIN15QtWebEngineCore26ClientCertSelectControllerEE@Qt_6 6.6.0
 _ZN36QWebEngineClientCertificateSelectionC2ERKS_@Qt_6 6.6.0
 _ZN36QWebEngineClientCertificateSelectionD1Ev@Qt_6 6.6.0
 _ZN36QWebEngineClientCertificateSelectionD2Ev@Qt_6 6.6.0
 _ZN36QWebEngineClientCertificateSelectionaSERKS_@Qt_6 6.6.0
 (optional=templinst)_ZN3WTF24IsCharacterAllowedInBaseILi10EEEbDs@Qt_6 6.6.0
 (optional=templinst)_ZN3WTF24IsCharacterAllowedInBaseILi16EEEbDs@Qt_6 6.6.0
 (optional=templinst)_ZN3egl11FromEGLenumINS_10ColorSpaceEEET_j@Qt_6 6.6.0
 (optional=templinst)_ZN3egl11FromEGLenumINS_10ObjectTypeEEET_j@Qt_6 6.6.0
 (optional=templinst)_ZN3egl11FromEGLenumINS_11MessageTypeEEET_j@Qt_6 6.6.0
 (optional=templinst)_ZN3egl11FromEGLenumINS_13TextureFormatEEET_j@Qt_6 6.6.0
 (optional=templinst)_ZN3egl11FromEGLenumINS_15ContextPriorityEEET_j@Qt_6 6.6.0
 (optional=templinst)_ZN3egl11FromEGLenumINS_16CompositorTimingEEET_j@Qt_6 6.6.0
 (optional=templinst)_ZN3egl11FromEGLenumINS_9TimestampEEET_j@Qt_6 6.6.0
 (optional=templinst)_ZN3re212re2_internal5ParseINSt7__cxx1112basic_stringIcSt11char_traitsIcESaIcEEEEEbPKcmPT_@Qt_6 6.6.0
 (optional=templinst)_ZN3re212re2_internal5ParseIaEEbPKcmPT_@Qt_6 6.6.0
 (optional=templinst)_ZN3re212re2_internal5ParseIcEEbPKcmPT_@Qt_6 6.6.0
 (optional=templinst)_ZN3re212re2_internal5ParseIdEEbPKcmPT_@Qt_6 6.6.0
 (optional=templinst)_ZN3re212re2_internal5ParseIfEEbPKcmPT_@Qt_6 6.6.0
 (optional=templinst)_ZN3re212re2_internal5ParseIhEEbPKcmPT_@Qt_6 6.6.0
 (optional=templinst)_ZN3re212re2_internal5ParseIiEEbPKcmPT_i@Qt_6 6.6.0
 (optional=templinst)_ZN3re212re2_internal5ParseIjEEbPKcmPT_i@Qt_6 6.6.0
 (optional=templinst)_ZN3re212re2_internal5ParseIlEEbPKcmPT_i@Qt_6 6.6.0
 (optional=templinst)_ZN3re212re2_internal5ParseImEEbPKcmPT_i@Qt_6 6.6.0
 (optional=templinst)_ZN3re212re2_internal5ParseIsEEbPKcmPT_i@Qt_6 6.6.0
 (optional=templinst)_ZN3re212re2_internal5ParseItEEbPKcmPT_i@Qt_6 6.6.0
 (optional=templinst)_ZN3re212re2_internal5ParseIvEEbPKcmPT_@Qt_6 6.6.0
 (optional=templinst)_ZN3re212re2_internal5ParseIxEEbPKcmPT_i@Qt_6 6.6.0
 (optional=templinst)_ZN3re212re2_internal5ParseIyEEbPKcmPT_i@Qt_6 6.6.0
 _ZN40QWebEngineRegisterProtocolHandlerRequest16staticMetaObjectE@Qt_6 6.6.0
 _ZN40QWebEngineRegisterProtocolHandlerRequest6acceptEv@Qt_6 6.6.0
 _ZN40QWebEngineRegisterProtocolHandlerRequest6rejectEv@Qt_6 6.6.0
 _ZN40QWebEngineRegisterProtocolHandlerRequestC1E14QSharedPointerIN15QtWebEngineCore40RegisterProtocolHandlerRequestControllerEE@Qt_6 6.6.0
 _ZN40QWebEngineRegisterProtocolHandlerRequestC2E14QSharedPointerIN15QtWebEngineCore40RegisterProtocolHandlerRequestControllerEE@Qt_6 6.6.0
 (optional=templinst)_ZN5blink8SetPixelIL13J_COLOR_SPACE2EEEvPjPPhi@Qt_6 6.6.0
 (optional=templinst)_ZN5blink8SetPixelIL13J_COLOR_SPACE4EEEvPjPPhi@Qt_6 6.6.0
 (optional=templinst)_ZN6google8protobuf8internal8byteswapILi1EEEvPv@Qt_6 6.6.0
 (optional=templinst)_ZN6google8protobuf8internal8byteswapILi4EEEvPv@Qt_6 6.6.0
 (optional=templinst)_ZN6google8protobuf8internal8byteswapILi8EEEvPv@Qt_6 6.6.0
 (optional=templinst)_ZN6webrtc24DownmixInterleavedToMonoIsEEvPKT_miPS1_@Qt_6 6.6.0
 _ZN7sandbox18localtime_overrideEPKl@Qt_6 6.6.0
 _ZN7sandbox20localtime64_overrideEPKl@Qt_6 6.6.0
 _ZN7sandbox20localtime_r_overrideEPKlP2tm@Qt_6 6.6.0
 _ZN7sandbox22localtime64_r_overrideEPKlP2tm@Qt_6 6.6.0
 (optional=templinst)_ZN9__gnu_cxx12__to_xstringINSt7__cxx1112basic_stringIcSt11char_traitsIcESaIcEEEcEET_PFiPT0_mPKS8_P13__va_list_tagEmSB_z@Qt_6 6.6.0
 _ZNK14QWebEnginePage10devToolsIdEv@Qt_6 6.6.0
 _ZNK14QWebEnginePage10metaObjectEv@Qt_6 6.6.0
 _ZNK14QWebEnginePage10webChannelEv@Qt_6 6.6.0
 _ZNK14QWebEnginePage10zoomFactorEv@Qt_6 6.6.0
 _ZNK14QWebEnginePage11toPlainTextERKSt8functionIFvRK7QStringEE@Qt_6 6.6.0
 _ZNK14QWebEnginePage12contentsSizeEv@Qt_6 6.6.0
 _ZNK14QWebEnginePage12devToolsPageEv@Qt_6 6.6.0
 _ZNK14QWebEnginePage12hasSelectionEv@Qt_6 6.6.0
 _ZNK14QWebEnginePage12isAudioMutedEv@Qt_6 6.6.0
 _ZNK14QWebEnginePage12requestedUrlEv@Qt_6 6.6.0
 _ZNK14QWebEnginePage12selectedTextEv@Qt_6 6.6.0
 _ZNK14QWebEnginePage13inspectedPageEv@Qt_6 6.6.0
 _ZNK14QWebEnginePage14lifecycleStateEv@Qt_6 6.6.0
 _ZNK14QWebEnginePage14scrollPositionEv@Qt_6 6.6.0
 _ZNK14QWebEnginePage15backgroundColorEv@Qt_6 6.6.0
 _ZNK14QWebEnginePage15recentlyAudibleEv@Qt_6 6.6.0
 _ZNK14QWebEnginePage16recommendedStateEv@Qt_6 6.6.0
 _ZNK14QWebEnginePage16renderProcessPidEv@Qt_6 6.6.0
 _ZNK14QWebEnginePage3urlEv@Qt_6 6.6.0
 _ZNK14QWebEnginePage4iconEv@Qt_6 6.6.0
 _ZNK14QWebEnginePage4saveERK7QStringN25QWebEngineDownloadRequest14SavePageFormatE@Qt_6 6.6.0
 _ZNK14QWebEnginePage5titleEv@Qt_6 6.6.0
 _ZNK14QWebEnginePage6actionENS_9WebActionE@Qt_6 6.6.0
 _ZNK14QWebEnginePage6toHtmlERKSt8functionIFvRK7QStringEE@Qt_6 6.6.0
 _ZNK14QWebEnginePage7historyEv@Qt_6 6.6.0
 _ZNK14QWebEnginePage7iconUrlEv@Qt_6 6.6.0
 _ZNK14QWebEnginePage7profileEv@Qt_6 6.6.0
 _ZNK14QWebEnginePage8settingsEv@Qt_6 6.6.0
 _ZNK14QWebEnginePage9isLoadingEv@Qt_6 6.6.0
 _ZNK14QWebEnginePage9isVisibleEv@Qt_6 6.6.0
 _ZNK15QtWebEngineCore13PrinterWorker10metaObjectEv@Qt_6 6.6.0
 _ZNK15QtWebEngineCore14FindTextHelper20isFindTextInProgressEv@Qt_6 6.6.0
 _ZNK15QtWebEngineCore14ProfileAdapter13httpCachePathEv@Qt_6 6.6.0
 _ZNK15QtWebEngineCore14ProfileAdapter13httpCacheTypeEv@Qt_6 6.6.0
 _ZNK15QtWebEngineCore14ProfileAdapter13httpUserAgentEv@Qt_6 6.6.0
 _ZNK15QtWebEngineCore14ProfileAdapter16customUrlSchemesEv@Qt_6 6.6.0
 _ZNK15QtWebEngineCore14ProfileAdapter16httpCacheMaxSizeEv@Qt_6 6.6.0
 _ZNK15QtWebEngineCore14ProfileAdapter17trackVisitedLinksEv@Qt_6 6.6.0
 _ZNK15QtWebEngineCore14ProfileAdapter18httpAcceptLanguageEv@Qt_6 6.6.0
 _ZNK15QtWebEngineCore14ProfileAdapter18pushServiceEnabledEv@Qt_6 6.6.0
 _ZNK15QtWebEngineCore14ProfileAdapter18visitedLinksPolicyEv@Qt_6 6.6.0
 _ZNK15QtWebEngineCore14ProfileAdapter19isSpellCheckEnabledEv@Qt_6 6.6.0
 _ZNK15QtWebEngineCore14ProfileAdapter19persistVisitedLinksEv@Qt_6 6.6.0
 _ZNK15QtWebEngineCore14ProfileAdapter19spellCheckLanguagesEv@Qt_6 6.6.0
 _ZNK15QtWebEngineCore14ProfileAdapter23persistentCookiesPolicyEv@Qt_6 6.6.0
 _ZNK15QtWebEngineCore14ProfileAdapter34httpAcceptLanguageWithoutQualitiesEv@Qt_6 6.6.0
 _ZNK15QtWebEngineCore14ProfileAdapter8dataPathEv@Qt_6 6.6.0
 _ZNK15QtWebEngineCore14ProfileAdapter9cachePathEv@Qt_6 6.6.0
 _ZNK15QtWebEngineCore18WebContentsAdapter10webChannelEv@Qt_6 6.6.0
 _ZNK15QtWebEngineCore18WebContentsAdapter11isInspectorEv@Qt_6 6.6.0
 _ZNK15QtWebEngineCore18WebContentsAdapter11webContentsEv@Qt_6 6.6.0
 _ZNK15QtWebEngineCore18WebContentsAdapter12canGoForwardEv@Qt_6 6.6.0
 _ZNK15QtWebEngineCore18WebContentsAdapter12hasInspectorEv@Qt_6 6.6.0
 _ZNK15QtWebEngineCore18WebContentsAdapter12isAudioMutedEv@Qt_6 6.6.0
 _ZNK15QtWebEngineCore18WebContentsAdapter12requestedUrlEv@Qt_6 6.6.0
 _ZNK15QtWebEngineCore18WebContentsAdapter12selectedTextEv@Qt_6 6.6.0
 _ZNK15QtWebEngineCore18WebContentsAdapter13canGoToOffsetEi@Qt_6 6.6.0
 _ZNK15QtWebEngineCore18WebContentsAdapter13isInitializedEv@Qt_6 6.6.0
 _ZNK15QtWebEngineCore18WebContentsAdapter14lifecycleStateEv@Qt_6 6.6.0
 _ZNK15QtWebEngineCore18WebContentsAdapter15hasFocusedFrameEv@Qt_6 6.6.0
 _ZNK15QtWebEngineCore18WebContentsAdapter15recentlyAudibleEv@Qt_6 6.6.0
 _ZNK15QtWebEngineCore18WebContentsAdapter16guestWebContentsEv@Qt_6 6.6.0
 _ZNK15QtWebEngineCore18WebContentsAdapter16lastContentsSizeEv@Qt_6 6.6.0
 _ZNK15QtWebEngineCore18WebContentsAdapter16lastScrollOffsetEv@Qt_6 6.6.0
 _ZNK15QtWebEngineCore18WebContentsAdapter16recommendedStateEv@Qt_6 6.6.0
 _ZNK15QtWebEngineCore18WebContentsAdapter16renderProcessPidEv@Qt_6 6.6.0
 _ZNK15QtWebEngineCore18WebContentsAdapter17currentZoomFactorEv@Qt_6 6.6.0
 _ZNK15QtWebEngineCore18WebContentsAdapter18requestInterceptorEv@Qt_6 6.6.0
 _ZNK15QtWebEngineCore18WebContentsAdapter25determineRecommendedStateEv@Qt_6 6.6.0
 _ZNK15QtWebEngineCore18WebContentsAdapter4iconEv@Qt_6 6.6.0
 _ZNK15QtWebEngineCore18WebContentsAdapter7iconUrlEv@Qt_6 6.6.0
 _ZNK15QtWebEngineCore18WebContentsAdapter9activeUrlEv@Qt_6 6.6.0
 _ZNK15QtWebEngineCore18WebContentsAdapter9canGoBackEv@Qt_6 6.6.0
 _ZNK15QtWebEngineCore18WebContentsAdapter9isVisibleEv@Qt_6 6.6.0
 _ZNK15QtWebEngineCore18WebContentsAdapter9pageTitleEv@Qt_6 6.6.0
 _ZNK15QtWebEngineCore20FilePickerController10metaObjectEv@Qt_6 6.6.0
 _ZNK15QtWebEngineCore20FilePickerController15defaultFileNameEv@Qt_6 6.6.0
 _ZNK15QtWebEngineCore20FilePickerController17acceptedMimeTypesEv@Qt_6 6.6.0
 _ZNK15QtWebEngineCore20FilePickerController4modeEv@Qt_6 6.6.0
 _ZNK15QtWebEngineCore21VisitedLinksManagerQt11containsUrlERK4QUrl@Qt_6 6.6.0
 _ZNK15QtWebEngineCore22ColorChooserController10metaObjectEv@Qt_6 6.6.0
 _ZNK15QtWebEngineCore22ColorChooserController12initialColorEv@Qt_6 6.6.0
 _ZNK15QtWebEngineCore23AutofillPopupController10metaObjectEv@Qt_6 6.6.0
 _ZNK15QtWebEngineCore23CookieMonsterDelegateQt12canSetCookieERK4QUrlRK10QByteArrayS3_@Qt_6 6.6.0
 _ZNK15QtWebEngineCore23CookieMonsterDelegateQt13canGetCookiesERK4QUrlS3_@Qt_6 6.6.0
 _ZNK15QtWebEngineCore26CertificateErrorController11errorStringEv@Qt_6 6.6.0
 _ZNK15QtWebEngineCore26CertificateErrorController11overridableEv@Qt_6 6.6.0
 _ZNK15QtWebEngineCore26CertificateErrorController16certificateChainEv@Qt_6 6.6.0
 _ZNK15QtWebEngineCore26CertificateErrorController3urlEv@Qt_6 6.6.0
 _ZNK15QtWebEngineCore26CertificateErrorController5errorEv@Qt_6 6.6.0
 _ZNK15QtWebEngineCore26CertificateErrorController8answeredEv@Qt_6 6.6.0
 _ZNK15QtWebEngineCore26CertificateErrorController8deferredEv@Qt_6 6.6.0
 _ZNK15QtWebEngineCore26ClientCertSelectController12certificatesEv@Qt_6 6.6.0
 _ZNK15QtWebEngineCore26JavaScriptDialogController10metaObjectEv@Qt_6 6.6.0
 _ZNK15QtWebEngineCore26JavaScriptDialogController13defaultPromptEv@Qt_6 6.6.0
 _ZNK15QtWebEngineCore26JavaScriptDialogController14securityOriginEv@Qt_6 6.6.0
 _ZNK15QtWebEngineCore26JavaScriptDialogController4typeEv@Qt_6 6.6.0
 _ZNK15QtWebEngineCore26JavaScriptDialogController5titleEv@Qt_6 6.6.0
 _ZNK15QtWebEngineCore26JavaScriptDialogController7messageEv@Qt_6 6.6.0
 _ZNK15QtWebEngineCore26UserNotificationController3tagEv@Qt_6 6.6.0
 _ZNK15QtWebEngineCore26UserNotificationController4bodyEv@Qt_6 6.6.0
 _ZNK15QtWebEngineCore26UserNotificationController4iconEv@Qt_6 6.6.0
 _ZNK15QtWebEngineCore26UserNotificationController5badgeEv@Qt_6 6.6.0
 _ZNK15QtWebEngineCore26UserNotificationController5imageEv@Qt_6 6.6.0
 _ZNK15QtWebEngineCore26UserNotificationController5titleEv@Qt_6 6.6.0
 _ZNK15QtWebEngineCore26UserNotificationController6originEv@Qt_6 6.6.0
 _ZNK15QtWebEngineCore26UserNotificationController7isShownEv@Qt_6 6.6.0
 _ZNK15QtWebEngineCore26UserNotificationController8languageEv@Qt_6 6.6.0
 _ZNK15QtWebEngineCore26UserNotificationController9directionEv@Qt_6 6.6.0
 _ZNK15QtWebEngineCore27URLRequestCustomJobDelegate10metaObjectEv@Qt_6 6.6.0
 _ZNK15QtWebEngineCore27URLRequestCustomJobDelegate14requestHeadersEv@Qt_6 6.6.0
 _ZNK15QtWebEngineCore27URLRequestCustomJobDelegate3urlEv@Qt_6 6.6.0
 _ZNK15QtWebEngineCore27URLRequestCustomJobDelegate6methodEv@Qt_6 6.6.0
 _ZNK15QtWebEngineCore27URLRequestCustomJobDelegate9initiatorEv@Qt_6 6.6.0
 _ZNK15QtWebEngineCore28TouchSelectionMenuController10metaObjectEv@Qt_6 6.6.0
 _ZNK15QtWebEngineCore30AuthenticationDialogController10metaObjectEv@Qt_6 6.6.0
 _ZNK15QtWebEngineCore30AuthenticationDialogController3urlEv@Qt_6 6.6.0
 _ZNK15QtWebEngineCore30AuthenticationDialogController4hostEv@Qt_6 6.6.0
 _ZNK15QtWebEngineCore30AuthenticationDialogController5realmEv@Qt_6 6.6.0
 _ZNK15QtWebEngineCore30AuthenticationDialogController7isProxyEv@Qt_6 6.6.0
 _ZNK15QtWebEngineCore34RenderWidgetHostViewQtDelegateItem10metaObjectEv@Qt_6 6.6.0
 _ZNK15QtWebEngineCore34RenderWidgetHostViewQtDelegateItem12viewGeometryEv@Qt_6 6.6.0
 _ZNK15QtWebEngineCore34RenderWidgetHostViewQtDelegateItem14windowGeometryEv@Qt_6 6.6.0
 _ZNK15QtWebEngineCore34RenderWidgetHostViewQtDelegateItem16inputMethodQueryEN2Qt16InputMethodQueryE@Qt_6 6.6.0
 _ZNK15QtWebEngineCore34RenderWidgetHostViewQtDelegateItem6WindowEv@Qt_6 6.6.0
 _ZNK15QtWebEngineCore34RenderWidgetHostViewQtDelegateItem9isVisibleEv@Qt_6 6.6.0
 _ZNK16QWebEngineScript10sourceCodeEv@Qt_6 6.6.0
 _ZNK16QWebEngineScript14injectionPointEv@Qt_6 6.6.0
 _ZNK16QWebEngineScript15runsOnSubFramesEv@Qt_6 6.6.0
 _ZNK16QWebEngineScript4nameEv@Qt_6 6.6.0
 _ZNK16QWebEngineScript7worldIdEv@Qt_6 6.6.0
 _ZNK16QWebEngineScript9sourceUrlEv@Qt_6 6.6.0
 _ZNK16QWebEngineScripteqERKS_@Qt_6 6.6.0
 _ZNK17QWebEngineHistory10itemsModelEv@Qt_6 6.6.0
 _ZNK17QWebEngineHistory10metaObjectEv@Qt_6 6.6.0
 _ZNK17QWebEngineHistory11currentItemEv@Qt_6 6.6.0
 _ZNK17QWebEngineHistory11forwardItemEv@Qt_6 6.6.0
 _ZNK17QWebEngineHistory12canGoForwardEv@Qt_6 6.6.0
 _ZNK17QWebEngineHistory12forwardItemsEi@Qt_6 6.6.0
 _ZNK17QWebEngineHistory14backItemsModelEv@Qt_6 6.6.0
 _ZNK17QWebEngineHistory16currentItemIndexEv@Qt_6 6.6.0
 _ZNK17QWebEngineHistory17forwardItemsModelEv@Qt_6 6.6.0
 _ZNK17QWebEngineHistory5countEv@Qt_6 6.6.0
 _ZNK17QWebEngineHistory5itemsEv@Qt_6 6.6.0
 _ZNK17QWebEngineHistory6itemAtEi@Qt_6 6.6.0
 _ZNK17QWebEngineHistory8backItemEv@Qt_6 6.6.0
 _ZNK17QWebEngineHistory9backItemsEi@Qt_6 6.6.0
 _ZNK17QWebEngineHistory9canGoBackEv@Qt_6 6.6.0
 _ZNK17QWebEngineProfile10metaObjectEv@Qt_6 6.6.0
 _ZNK17QWebEngineProfile11storageNameEv@Qt_6 6.6.0
 _ZNK17QWebEngineProfile12downloadPathEv@Qt_6 6.6.0
 _ZNK17QWebEngineProfile13httpCacheTypeEv@Qt_6 6.6.0
 _ZNK17QWebEngineProfile13httpUserAgentEv@Qt_6 6.6.0
 _ZNK17QWebEngineProfile14isOffTheRecordEv@Qt_6 6.6.0
 _ZNK17QWebEngineProfile16urlSchemeHandlerERK10QByteArray@Qt_6 6.6.0
 _ZNK17QWebEngineProfile18httpAcceptLanguageEv@Qt_6 6.6.0
 _ZNK17QWebEngineProfile19isSpellCheckEnabledEv@Qt_6 6.6.0
 _ZNK17QWebEngineProfile19spellCheckLanguagesEv@Qt_6 6.6.0
 _ZNK17QWebEngineProfile20httpCacheMaximumSizeEv@Qt_6 6.6.0
 _ZNK17QWebEngineProfile20isPushServiceEnabledEv@Qt_6 6.6.0
 _ZNK17QWebEngineProfile21persistentStoragePathEv@Qt_6 6.6.0
 _ZNK17QWebEngineProfile21requestIconForIconURLERK4QUrliSt8functionIFvRK5QIconS2_EE@Qt_6 6.6.0
 _ZNK17QWebEngineProfile21requestIconForPageURLERK4QUrliSt8functionIFvRK5QIconS2_S2_EE@Qt_6 6.6.0
 _ZNK17QWebEngineProfile23persistentCookiesPolicyEv@Qt_6 6.6.0
 _ZNK17QWebEngineProfile23visitedLinksContainsUrlERK4QUrl@Qt_6 6.6.0
 _ZNK17QWebEngineProfile7scriptsEv@Qt_6 6.6.0
 _ZNK17QWebEngineProfile8settingsEv@Qt_6 6.6.0
 _ZNK17QWebEngineProfile9cachePathEv@Qt_6 6.6.0
 _ZNK18QWebEngineSettings10fontFamilyENS_10FontFamilyE@Qt_6 6.6.0
 _ZNK18QWebEngineSettings13testAttributeENS_12WebAttributeE@Qt_6 6.6.0
 _ZNK18QWebEngineSettings19defaultTextEncodingEv@Qt_6 6.6.0
 _ZNK18QWebEngineSettings22unknownUrlSchemePolicyEv@Qt_6 6.6.0
 _ZNK18QWebEngineSettings8fontSizeENS_8FontSizeE@Qt_6 6.6.0
 _ZNK19QWebEngineUrlScheme11defaultPortEv@Qt_6 6.6.0
 _ZNK19QWebEngineUrlScheme4nameEv@Qt_6 6.6.0
 _ZNK19QWebEngineUrlScheme5flagsEv@Qt_6 6.6.0
 _ZNK19QWebEngineUrlScheme6syntaxEv@Qt_6 6.6.0
 _ZNK19QWebEngineUrlSchemeeqERKS_@Qt_6 6.6.0
 _ZNK21QWebEngineCookieStore10metaObjectEv@Qt_6 6.6.0
 _ZNK21QWebEngineHistoryItem11lastVisitedEv@Qt_6 6.6.0
 _ZNK21QWebEngineHistoryItem11originalUrlEv@Qt_6 6.6.0
 _ZNK21QWebEngineHistoryItem3urlEv@Qt_6 6.6.0
 _ZNK21QWebEngineHistoryItem5titleEv@Qt_6 6.6.0
 _ZNK21QWebEngineHistoryItem7iconUrlEv@Qt_6 6.6.0
 _ZNK21QWebEngineHistoryItem7isValidEv@Qt_6 6.6.0
 _ZNK21QWebEngineHttpRequest3urlEv@Qt_6 6.6.0
 _ZNK21QWebEngineHttpRequest6headerERK10QByteArray@Qt_6 6.6.0
 _ZNK21QWebEngineHttpRequest6methodEv@Qt_6 6.6.0
 _ZNK21QWebEngineHttpRequest7headersEv@Qt_6 6.6.0
 _ZNK21QWebEngineHttpRequest8postDataEv@Qt_6 6.6.0
 _ZNK21QWebEngineHttpRequest9hasHeaderERK10QByteArray@Qt_6 6.6.0
 _ZNK21QWebEngineHttpRequesteqERKS_@Qt_6 6.6.0
 _ZNK21QWebEngineLoadingInfo11errorDomainEv@Qt_6 6.6.0
 _ZNK21QWebEngineLoadingInfo11errorStringEv@Qt_6 6.6.0
 _ZNK21QWebEngineLoadingInfo11isErrorPageEv@Qt_6 6.6.0
 _ZNK21QWebEngineLoadingInfo15responseHeadersEv@Qt_6 6.6.0
 _ZNK21QWebEngineLoadingInfo3urlEv@Qt_6 6.6.0
 _ZNK21QWebEngineLoadingInfo6statusEv@Qt_6 6.6.0
 _ZNK21QWebEngineLoadingInfo9errorCodeEv@Qt_6 6.6.0
 _ZNK22QWebEngineHistoryModel10metaObjectEv@Qt_6 6.6.0
 _ZNK22QWebEngineHistoryModel4dataERK11QModelIndexi@Qt_6 6.6.0
 _ZNK22QWebEngineHistoryModel8rowCountERK11QModelIndex@Qt_6 6.6.0
 _ZNK22QWebEngineHistoryModel9roleNamesEv@Qt_6 6.6.0
 _ZNK22QWebEngineNotification10metaObjectEv@Qt_6 6.6.0
 _ZNK22QWebEngineNotification3tagEv@Qt_6 6.6.0
 _ZNK22QWebEngineNotification4iconEv@Qt_6 6.6.0
 _ZNK22QWebEngineNotification4showEv@Qt_6 6.6.0
 _ZNK22QWebEngineNotification5clickEv@Qt_6 6.6.0
 _ZNK22QWebEngineNotification5closeEv@Qt_6 6.6.0
 _ZNK22QWebEngineNotification5titleEv@Qt_6 6.6.0
 _ZNK22QWebEngineNotification6originEv@Qt_6 6.6.0
 _ZNK22QWebEngineNotification7matchesEPKS_@Qt_6 6.6.0
 _ZNK22QWebEngineNotification7messageEv@Qt_6 6.6.0
 _ZNK22QWebEngineNotification8languageEv@Qt_6 6.6.0
 _ZNK22QWebEngineNotification9directionEv@Qt_6 6.6.0
 _ZNK22QWebEngineQuotaRequest13requestedSizeEv@Qt_6 6.6.0
 _ZNK22QWebEngineQuotaRequest6originEv@Qt_6 6.6.0
 _ZNK23QWebEngineUrlRequestJob10metaObjectEv@Qt_6 6.6.0
 _ZNK23QWebEngineUrlRequestJob10requestUrlEv@Qt_6 6.6.0
 _ZNK23QWebEngineUrlRequestJob13requestMethodEv@Qt_6 6.6.0
 _ZNK23QWebEngineUrlRequestJob14requestHeadersEv@Qt_6 6.6.0
 _ZNK23QWebEngineUrlRequestJob28setAdditionalResponseHeadersERK9QMultiMapI10QByteArrayS1_E@Qt_6 6.6.0
 _ZNK23QWebEngineUrlRequestJob9initiatorEv@Qt_6 6.6.0
 _ZNK24QWebEngineFindTextResult11activeMatchEv@Qt_6 6.6.0
 _ZNK24QWebEngineFindTextResult15numberOfMatchesEv@Qt_6 6.6.0
 _ZNK24QWebEngineUrlRequestInfo10requestUrlEv@Qt_6 6.6.0
 _ZNK24QWebEngineUrlRequestInfo11httpHeadersEv@Qt_6 6.6.0
 _ZNK24QWebEngineUrlRequestInfo12resourceTypeEv@Qt_6 6.6.0
 _ZNK24QWebEngineUrlRequestInfo13firstPartyUrlEv@Qt_6 6.6.0
 _ZNK24QWebEngineUrlRequestInfo13requestMethodEv@Qt_6 6.6.0
 _ZNK24QWebEngineUrlRequestInfo14navigationTypeEv@Qt_6 6.6.0
 _ZNK24QWebEngineUrlRequestInfo7changedEv@Qt_6 6.6.0
 _ZNK24QWebEngineUrlRequestInfo9initiatorEv@Qt_6 6.6.0
 _ZNK25QWebEngineDownloadRequest10isFinishedEv@Qt_6 6.6.0
 _ZNK25QWebEngineDownloadRequest10metaObjectEv@Qt_6 6.6.0
 _ZNK25QWebEngineDownloadRequest10totalBytesEv@Qt_6 6.6.0
 _ZNK25QWebEngineDownloadRequest13receivedBytesEv@Qt_6 6.6.0
 _ZNK25QWebEngineDownloadRequest14savePageFormatEv@Qt_6 6.6.0
 _ZNK25QWebEngineDownloadRequest15interruptReasonEv@Qt_6 6.6.0
 _ZNK25QWebEngineDownloadRequest16downloadFileNameEv@Qt_6 6.6.0
 _ZNK25QWebEngineDownloadRequest17downloadDirectoryEv@Qt_6 6.6.0
 _ZNK25QWebEngineDownloadRequest17suggestedFileNameEv@Qt_6 6.6.0
 _ZNK25QWebEngineDownloadRequest18isSavePageDownloadEv@Qt_6 6.6.0
 _ZNK25QWebEngineDownloadRequest21interruptReasonStringEv@Qt_6 6.6.0
 _ZNK25QWebEngineDownloadRequest2idEv@Qt_6 6.6.0
 _ZNK25QWebEngineDownloadRequest3urlEv@Qt_6 6.6.0
 _ZNK25QWebEngineDownloadRequest4pageEv@Qt_6 6.6.0
 _ZNK25QWebEngineDownloadRequest5stateEv@Qt_6 6.6.0
 _ZNK25QWebEngineDownloadRequest8isPausedEv@Qt_6 6.6.0
 _ZNK25QWebEngineDownloadRequest8mimeTypeEv@Qt_6 6.6.0
 _ZNK26QWebEngineCertificateError11descriptionEv@Qt_6 6.6.0
 _ZNK26QWebEngineCertificateError13isOverridableEv@Qt_6 6.6.0
 _ZNK26QWebEngineCertificateError16certificateChainEv@Qt_6 6.6.0
 _ZNK26QWebEngineCertificateError3urlEv@Qt_6 6.6.0
 _ZNK26QWebEngineCertificateError4typeEv@Qt_6 6.6.0
 _ZNK26QWebEngineNewWindowRequest10metaObjectEv@Qt_6 6.6.0
 _ZNK26QWebEngineNewWindowRequest11destinationEv@Qt_6 6.6.0
 _ZNK26QWebEngineNewWindowRequest12requestedUrlEv@Qt_6 6.6.0
 _ZNK26QWebEngineNewWindowRequest15isUserInitiatedEv@Qt_6 6.6.0
 _ZNK26QWebEngineNewWindowRequest17requestedGeometryEv@Qt_6 6.6.0
 _ZNK26QWebEngineScriptCollection4findERK7QString@Qt_6 6.6.0
 _ZNK26QWebEngineScriptCollection5countEv@Qt_6 6.6.0
 _ZNK26QWebEngineScriptCollection6toListEv@Qt_6 6.6.0
 _ZNK26QWebEngineScriptCollection8containsERK16QWebEngineScript@Qt_6 6.6.0
 _ZNK26QWebEngineUrlSchemeHandler10metaObjectEv@Qt_6 6.6.0
 _ZNK27QWebEngineFullScreenRequest6originEv@Qt_6 6.6.0
 _ZNK27QWebEngineFullScreenRequest8toggleOnEv@Qt_6 6.6.0
 _ZNK27QWebEngineNavigationRequest10isAcceptedEv@Qt_6 6.6.0
 _ZNK27QWebEngineNavigationRequest10metaObjectEv@Qt_6 6.6.0
 _ZNK27QWebEngineNavigationRequest11isMainFrameEv@Qt_6 6.6.0
 _ZNK27QWebEngineNavigationRequest14navigationTypeEv@Qt_6 6.6.0
 _ZNK27QWebEngineNavigationRequest3urlEv@Qt_6 6.6.0
 _ZNK27QWebEngineNavigationRequest6actionEv@Qt_6 6.6.0
 _ZNK28QWebEngineContextMenuRequest10isAcceptedEv@Qt_6 6.6.0
 _ZNK28QWebEngineContextMenuRequest10mediaFlagsEv@Qt_6 6.6.0
 _ZNK28QWebEngineContextMenuRequest10metaObjectEv@Qt_6 6.6.0
 _ZNK28QWebEngineContextMenuRequest11referrerUrlEv@Qt_6 6.6.0
 _ZNK28QWebEngineContextMenuRequest12selectedTextEv@Qt_6 6.6.0
 _ZNK28QWebEngineContextMenuRequest14misspelledWordEv@Qt_6 6.6.0
 _ZNK28QWebEngineContextMenuRequest14referrerPolicyEv@Qt_6 6.6.0
 _ZNK28QWebEngineContextMenuRequest15filteredLinkUrlEv@Qt_6 6.6.0
 _ZNK28QWebEngineContextMenuRequest15hasImageContentEv@Qt_6 6.6.0
 _ZNK28QWebEngineContextMenuRequest17isContentEditableEv@Qt_6 6.6.0
 _ZNK28QWebEngineContextMenuRequest17suggestedFileNameEv@Qt_6 6.6.0
 _ZNK28QWebEngineContextMenuRequest23spellCheckerSuggestionsEv@Qt_6 6.6.0
 _ZNK28QWebEngineContextMenuRequest7altTextEv@Qt_6 6.6.0
 _ZNK28QWebEngineContextMenuRequest7linkUrlEv@Qt_6 6.6.0
 _ZNK28QWebEngineContextMenuRequest8linkTextEv@Qt_6 6.6.0
 _ZNK28QWebEngineContextMenuRequest8mediaUrlEv@Qt_6 6.6.0
 _ZNK28QWebEngineContextMenuRequest8positionEv@Qt_6 6.6.0
 _ZNK28QWebEngineContextMenuRequest9editFlagsEv@Qt_6 6.6.0
 _ZNK28QWebEngineContextMenuRequest9mediaTypeEv@Qt_6 6.6.0
 _ZNK28QWebEngineContextMenuRequest9titleTextEv@Qt_6 6.6.0
 _ZNK31QWebEngineUrlRequestInterceptor10metaObjectEv@Qt_6 6.6.0
 _ZNK32QWebEngineClientCertificateStore12certificatesEv@Qt_6 6.6.0
 _ZNK33QWebEngineFileSystemAccessRequest10handleTypeEv@Qt_6 6.6.0
 _ZNK33QWebEngineFileSystemAccessRequest11accessFlagsEv@Qt_6 6.6.0
 _ZNK33QWebEngineFileSystemAccessRequest6originEv@Qt_6 6.6.0
 _ZNK33QWebEngineFileSystemAccessRequest8filePathEv@Qt_6 6.6.0
 _ZNK36QWebEngineClientCertificateSelection12certificatesEv@Qt_6 6.6.0
 _ZNK36QWebEngineClientCertificateSelection4hostEv@Qt_6 6.6.0
 _ZNK40QWebEngineRegisterProtocolHandlerRequest6originEv@Qt_6 6.6.0
 _ZNK40QWebEngineRegisterProtocolHandlerRequest6schemeEv@Qt_6 6.6.0
 (optional=templinst)_ZNKSt10_HashtableINSt7__cxx1112basic_stringIcSt11char_traitsIcESaIcEEES5_SaIS5_ENSt8__detail9_IdentityESt8equal_toIS5_ESt4hashIS5_ENS7_18_Mod_range_hashingENS7_20_Default_ranged_hashENS7_20_Prime_rehash_policyENS7_17_Hashtable_traitsILb1ELb1ELb1EEEE19_M_find_before_nodeEmRKS5_m@Qt_6 6.6.0
 (optional=templinst)_ZNKSt10_HashtableINSt7__cxx1112basic_stringIcSt11char_traitsIcESaIcEEES5_SaIS5_ENSt8__detail9_IdentityESt8equal_toIS5_ESt4hashIS5_ENS7_18_Mod_range_hashingENS7_20_Default_ranged_hashENS7_20_Prime_rehash_policyENS7_17_Hashtable_traitsILb1ELb1ELb1EEEE4findERKS5_@Qt_6 6.6.0
 (optional=templinst)_ZNKSt10_HashtableINSt7__cxx1112basic_stringIcSt11char_traitsIcESaIcEEESt4pairIKS5_N3gpu5gles212ProgramCache19LinkedProgramStatusEESaISC_ENSt8__detail10_Select1stESt8equal_toIS5_ESt4hashIS5_ENSE_18_Mod_range_hashingENSE_20_Default_ranged_hashENSE_20_Prime_rehash_policyENSE_17_Hashtable_traitsILb1ELb0ELb1EEEE19_M_find_before_nodeEmRS7_m@Qt_6 6.6.0
 (optional=templinst)_ZNKSt10_HashtableINSt7__cxx1112basic_stringIcSt11char_traitsIcESaIcEEESt4pairIKS5_N5media8EmeCodecEESaISA_ENSt8__detail10_Select1stESt8equal_toIS5_ESt4hashIS5_ENSC_18_Mod_range_hashingENSC_20_Default_ranged_hashENSC_20_Prime_rehash_policyENSC_17_Hashtable_traitsILb1ELb0ELb1EEEE19_M_find_before_nodeEmRS7_m@Qt_6 6.6.0
 (optional=templinst)_ZNKSt10_HashtableINSt7__cxx1112basic_stringIcSt11char_traitsIcESaIcEEESt4pairIKS5_N6device5mojom10SensorTypeEESaISB_ENSt8__detail10_Select1stESt8equal_toIS5_ESt4hashIS5_ENSD_18_Mod_range_hashingENSD_20_Default_ranged_hashENSD_20_Prime_rehash_policyENSD_17_Hashtable_traitsILb1ELb0ELb1EEEE19_M_find_before_nodeEmRS7_m@Qt_6 6.6.0
 (optional=templinst)_ZNKSt10_HashtableINSt7__cxx1112basic_stringIcSt11char_traitsIcESaIcEEESt4pairIKS5_N6device5mojom10SensorTypeEESaISB_ENSt8__detail10_Select1stESt8equal_toIS5_ESt4hashIS5_ENSD_18_Mod_range_hashingENSD_20_Default_ranged_hashENSD_20_Prime_rehash_policyENSD_17_Hashtable_traitsILb1ELb0ELb1EEEE4findERS7_@Qt_6 6.6.0
 (optional=templinst)_ZNKSt10_HashtableINSt7__cxx1112basic_stringIcSt11char_traitsIcESaIcEEESt4pairIKS5_PKvESaISA_ENSt8__detail10_Select1stESt8equal_toIS5_ESt4hashIS5_ENSC_18_Mod_range_hashingENSC_20_Default_ranged_hashENSC_20_Prime_rehash_policyENSC_17_Hashtable_traitsILb1ELb0ELb1EEEE19_M_find_before_nodeEmRS7_m@Qt_6 6.6.0
 (optional=templinst)_ZNKSt10_HashtableINSt7__cxx1112basic_stringIcSt11char_traitsIcESaIcEEESt4pairIKS5_S5_ESaIS8_ENSt8__detail10_Select1stESt8equal_toIS5_ESt4hashIS5_ENSA_18_Mod_range_hashingENSA_20_Default_ranged_hashENSA_20_Prime_rehash_policyENSA_17_Hashtable_traitsILb1ELb0ELb1EEEE19_M_find_before_nodeEmRS7_m@Qt_6 6.6.0
 (optional=templinst)_ZNKSt10_HashtableINSt7__cxx1112basic_stringIcSt11char_traitsIcESaIcEEESt4pairIKS5_S5_ESaIS8_ENSt8__detail10_Select1stESt8equal_toIS5_ESt4hashIS5_ENSA_18_Mod_range_hashingENSA_20_Default_ranged_hashENSA_20_Prime_rehash_policyENSA_17_Hashtable_traitsILb1ELb0ELb1EEEE4findERS7_@Qt_6 6.6.0
 (optional=templinst)_ZNKSt10_HashtableINSt7__cxx1112basic_stringIcSt11char_traitsIcESaIcEEESt4pairIKS5_S6_IS5_bEESaIS9_ENSt8__detail10_Select1stESt8equal_toIS5_ESt4hashIS5_ENSB_18_Mod_range_hashingENSB_20_Default_ranged_hashENSB_20_Prime_rehash_policyENSB_17_Hashtable_traitsILb1ELb0ELb1EEEE19_M_find_before_nodeEmRS7_m@Qt_6 6.6.0
 (optional=templinst)_ZNKSt10_HashtableINSt7__cxx1112basic_stringIcSt11char_traitsIcESaIcEEESt4pairIKS5_St6vectorIS5_SaIS5_EEESaISB_ENSt8__detail10_Select1stESt8equal_toIS5_ESt4hashIS5_ENSD_18_Mod_range_hashingENSD_20_Default_ranged_hashENSD_20_Prime_rehash_policyENSD_17_Hashtable_traitsILb1ELb0ELb1EEEE19_M_find_before_nodeEmRS7_m@Qt_6 6.6.0
 (optional=templinst)_ZNKSt10_HashtableINSt7__cxx1112basic_stringIcSt11char_traitsIcESaIcEEESt4pairIKS5_St6vectorIS5_SaIS5_EEESaISB_ENSt8__detail10_Select1stESt8equal_toIS5_ESt4hashIS5_ENSD_18_Mod_range_hashingENSD_20_Default_ranged_hashENSD_20_Prime_rehash_policyENSD_17_Hashtable_traitsILb1ELb0ELb1EEEE4findERS7_@Qt_6 6.6.0
 (optional=templinst)_ZNKSt10_HashtableINSt7__cxx1112basic_stringIcSt11char_traitsIcESaIcEEESt4pairIKS5_bESaIS8_ENSt8__detail10_Select1stESt8equal_toIS5_ESt4hashIS5_ENSA_18_Mod_range_hashingENSA_20_Default_ranged_hashENSA_20_Prime_rehash_policyENSA_17_Hashtable_traitsILb1ELb0ELb1EEEE19_M_find_before_nodeEmRS7_m@Qt_6 6.6.0
 (optional=templinst)_ZNKSt10_HashtableINSt7__cxx1112basic_stringIcSt11char_traitsIcESaIcEEESt4pairIKS5_iESaIS8_ENSt8__detail10_Select1stESt8equal_toIS5_ESt4hashIS5_ENSA_18_Mod_range_hashingENSA_20_Default_ranged_hashENSA_20_Prime_rehash_policyENSA_17_Hashtable_traitsILb1ELb0ELb1EEEE19_M_find_before_nodeEmRS7_m@Qt_6 6.6.0
 (optional=templinst)_ZNKSt10_HashtableINSt7__cxx1112basic_stringIcSt11char_traitsIcESaIcEEESt4pairIKS5_iESaIS8_ENSt8__detail10_Select1stESt8equal_toIS5_ESt4hashIS5_ENSA_18_Mod_range_hashingENSA_20_Default_ranged_hashENSA_20_Prime_rehash_policyENSA_17_Hashtable_traitsILb1ELb0ELb1EEEE4findERS7_@Qt_6 6.6.0
 (optional=templinst)_ZNKSt10_HashtableINSt7__cxx1112basic_stringIcSt11char_traitsIcESaIcEEESt4pairIKS5_jESaIS8_ENSt8__detail10_Select1stESt8equal_toIS5_ESt4hashIS5_ENSA_18_Mod_range_hashingENSA_20_Default_ranged_hashENSA_20_Prime_rehash_policyENSA_17_Hashtable_traitsILb1ELb0ELb1EEEE19_M_find_before_nodeEmRS7_m@Qt_6 6.6.0
 (optional=templinst)_ZNKSt10_HashtableINSt7__cxx1112basic_stringIcSt11char_traitsIcESaIcEEESt4pairIKS5_mESaIS8_ENSt8__detail10_Select1stESt8equal_toIS5_ESt4hashIS5_ENSA_18_Mod_range_hashingENSA_20_Default_ranged_hashENSA_20_Prime_rehash_policyENSA_17_Hashtable_traitsILb1ELb0ELb1EEEE19_M_find_before_nodeEmRS7_m@Qt_6 6.6.0
 (optional=templinst)_ZNKSt6bitsetILm32EE17_M_copy_to_stringIcSt11char_traitsIcESaIcEEEvRNSt7__cxx1112basic_stringIT_T0_T1_EES7_S7_@Qt_6 6.6.0
 (optional=templinst)_ZNKSt6bitsetILm64EE17_M_copy_to_stringIcSt11char_traitsIcESaIcEEEvRNSt7__cxx1112basic_stringIT_T0_T1_EES7_S7_@Qt_6 6.6.0
 (optional=templinst)_ZNKSt7__cxx1112regex_traitsIcE16lookup_classnameIPKcEENS1_10_RegexMaskET_S6_b@Qt_6 6.6.0
 (optional=templinst)_ZNKSt7__cxx1112regex_traitsIcE18lookup_collatenameIPKcEENS_12basic_stringIcSt11char_traitsIcESaIcEEET_SA_@Qt_6 6.6.0
 (optional=templinst)_ZNKSt8_Rb_treeINSt7__cxx1112basic_stringIDsSt11char_traitsIDsESaIDsEEES5_St9_IdentityIS5_ESt4lessIS5_ESaIS5_EE4findERKS5_@Qt_6 6.6.0
 (optional=templinst)_ZNKSt8_Rb_treeINSt7__cxx1112basic_stringIDsSt11char_traitsIDsESaIDsEEESt4pairIKS5_S6_IilEESt10_Select1stIS9_ESt4lessIS5_ESaIS9_EE4findERS7_@Qt_6 6.6.0
 (optional=templinst)_ZNKSt8_Rb_treeINSt7__cxx1112basic_stringIcSt11char_traitsIcESaIcEEES5_St9_IdentityIS5_ESt4lessIS5_ESaIS5_EE4findERKS5_@Qt_6 6.6.0
 (optional=templinst)_ZNKSt8_Rb_treeINSt7__cxx1112basic_stringIcSt11char_traitsIcESaIcEEESt4pairIKS5_N7content23BackForwardCacheMetrics17NotRestoredReasonEESt10_Select1stISB_ESt4lessIS5_ESaISB_EE4findERS7_@Qt_6 6.6.0
 (optional=templinst)_ZNKSt8_Rb_treeINSt7__cxx1112basic_stringIcSt11char_traitsIcESaIcEEESt4pairIKS5_NS1_IDsS2_IDsESaIDsEEEESt10_Select1stISB_ESt4lessIS5_ESaISB_EE4findERS7_@Qt_6 6.6.0
 (optional=templinst)_ZNKSt8_Rb_treeINSt7__cxx1112basic_stringIcSt11char_traitsIcESaIcEEESt4pairIKS5_S5_ESt10_Select1stIS8_ESt4lessIS5_ESaIS8_EE4findERS7_@Qt_6 6.6.0
 (optional=templinst)_ZNKSt8_Rb_treeINSt7__cxx1112basic_stringIcSt11char_traitsIcESaIcEEESt4pairIKS5_St3mapINS1_IDsS2_IDsESaIDsEEES6_IilESt4lessISB_ESaIS6_IKSB_SC_EEEESt10_Select1stISJ_ESD_IS5_ESaISJ_EE4findERS7_@Qt_6 6.6.0
 (optional=templinst)_ZNKSt8_Rb_treeINSt7__cxx1112basic_stringIcSt11char_traitsIcESaIcEEESt4pairIKS5_St6vectorIS5_SaIS5_EEESt10_Select1stISB_ESt4lessIS5_ESaISB_EE4findERS7_@Qt_6 6.6.0
 (optional=templinst)_ZNKSt8_Rb_treeINSt7__cxx1112basic_stringIcSt11char_traitsIcESaIcEEESt4pairIKS5_iESt10_Select1stIS8_ESt4lessIS5_ESaIS8_EE4findERS7_@Qt_6 6.6.0
 (optional=templinst)_ZNKSt8_Rb_treeISt4pairIiN10variations15IDCollectionKeyEES3_St9_IdentityIS3_ESt4lessIS3_ESaIS3_EE4findERKS3_@Qt_6 6.6.0
 (optional=templinst)_ZNKSt8__detail9_ExecutorIN9__gnu_cxx17__normal_iteratorIPKcNSt7__cxx1112basic_stringIcSt11char_traitsIcESaIcEEEEESaINS5_9sub_matchISB_EEENS5_12regex_traitsIcEELb0EE16_M_word_boundaryEv@Qt_6 6.6.0
 (optional=templinst)_ZNKSt8__detail9_ExecutorIN9__gnu_cxx17__normal_iteratorIPKcNSt7__cxx1112basic_stringIcSt11char_traitsIcESaIcEEEEESaINS5_9sub_matchISB_EEENS5_12regex_traitsIcEELb1EE16_M_word_boundaryEv@Qt_6 6.6.0
 (optional=templinst)_ZNSt10_HashtableI15VkColorSpaceKHRSt4pairIKS0_St13unordered_setI8VkFormatSt4hashIS4_ESt8equal_toIS4_ESaIS4_EEESaISB_ENSt8__detail10_Select1stES7_IS0_ES5_IS0_ENSD_18_Mod_range_hashingENSD_20_Default_ranged_hashENSD_20_Prime_rehash_policyENSD_17_Hashtable_traitsILb0ELb0ELb1EEEE5clearEv@Qt_6 6.6.0
 (optional=templinst)_ZNSt10_HashtableINSt7__cxx1112basic_stringIDsSt11char_traitsIDsESaIDsEEESt4pairIKS5_S5_ESaIS8_ENSt8__detail10_Select1stESt8equal_toIS5_ESt4hashIS5_ENSA_18_Mod_range_hashingENSA_20_Default_ranged_hashENSA_20_Prime_rehash_policyENSA_17_Hashtable_traitsILb1ELb0ELb1EEEE5clearEv@Qt_6 6.6.0
 (optional=templinst)_ZNSt10_HashtableINSt7__cxx1112basic_stringIcSt11char_traitsIcESaIcEEES5_SaIS5_ENSt8__detail9_IdentityESt8equal_toIS5_ESt4hashIS5_ENS7_18_Mod_range_hashingENS7_20_Default_ranged_hashENS7_20_Prime_rehash_policyENS7_17_Hashtable_traitsILb1ELb1ELb1EEEE18_M_assign_elementsIRKSI_EEvOT_@Qt_6 6.6.0
 (optional=templinst)_ZNSt10_HashtableINSt7__cxx1112basic_stringIcSt11char_traitsIcESaIcEEES5_SaIS5_ENSt8__detail9_IdentityESt8equal_toIS5_ESt4hashIS5_ENS7_18_Mod_range_hashingENS7_20_Default_ranged_hashENS7_20_Prime_rehash_policyENS7_17_Hashtable_traitsILb1ELb1ELb1EEEE21_M_insert_unique_nodeEmmPNS7_10_Hash_nodeIS5_Lb1EEEm@Qt_6 6.6.0
 (optional=templinst)_ZNSt10_HashtableINSt7__cxx1112basic_stringIcSt11char_traitsIcESaIcEEES5_SaIS5_ENSt8__detail9_IdentityESt8equal_toIS5_ESt4hashIS5_ENS7_18_Mod_range_hashingENS7_20_Default_ranged_hashENS7_20_Prime_rehash_policyENS7_17_Hashtable_traitsILb1ELb1ELb1EEEE5clearEv@Qt_6 6.6.0
 (optional=templinst)_ZNSt10_HashtableINSt7__cxx1112basic_stringIcSt11char_traitsIcESaIcEEES5_SaIS5_ENSt8__detail9_IdentityESt8equal_toIS5_ESt4hashIS5_ENS7_18_Mod_range_hashingENS7_20_Default_ranged_hashENS7_20_Prime_rehash_policyENS7_17_Hashtable_traitsILb1ELb1ELb1EEEE9_M_assignIRKSI_NS7_17_ReuseOrAllocNodeISaINS7_10_Hash_nodeIS5_Lb1EEEEEEEEvOT_RKT0_@Qt_6 6.6.0
 (optional=templinst)_ZNSt10_HashtableINSt7__cxx1112basic_stringIcSt11char_traitsIcESaIcEEES5_SaIS5_ENSt8__detail9_IdentityESt8equal_toIS5_ESt4hashIS5_ENS7_18_Mod_range_hashingENS7_20_Default_ranged_hashENS7_20_Prime_rehash_policyENS7_17_Hashtable_traitsILb1ELb1ELb1EEEEC1EOSI_OSaINS7_10_Hash_nodeIS5_Lb1EEEESt17integral_constantIbLb1EE@Qt_6 6.6.0
 (optional=templinst)_ZNSt10_HashtableINSt7__cxx1112basic_stringIcSt11char_traitsIcESaIcEEES5_SaIS5_ENSt8__detail9_IdentityESt8equal_toIS5_ESt4hashIS5_ENS7_18_Mod_range_hashingENS7_20_Default_ranged_hashENS7_20_Prime_rehash_policyENS7_17_Hashtable_traitsILb1ELb1ELb1EEEEC2EOSI_OSaINS7_10_Hash_nodeIS5_Lb1EEEESt17integral_constantIbLb1EE@Qt_6 6.6.0
 (optional=templinst)_ZNSt10_HashtableINSt7__cxx1112basic_stringIcSt11char_traitsIcESaIcEEESt4pairIKS5_N12sqlite_proto12KeyValueDataIN7content5proto25PrivateAggregationBudgetsENS8_8internal11FakeCompareISC_EEE17DeferredOperationEESaISI_ENSt8__detail10_Select1stESt8equal_toIS5_ESt4hashIS5_ENSK_18_Mod_range_hashingENSK_20_Default_ranged_hashENSK_20_Prime_rehash_policyENSK_17_Hashtable_traitsILb1ELb0ELb1EEEE5clearEv@Qt_6 6.6.0
 (optional=templinst)_ZNSt10_HashtableINSt7__cxx1112basic_stringIcSt11char_traitsIcESaIcEEESt4pairIKS5_N3gpu5gles212ProgramCache19LinkedProgramStatusEESaISC_ENSt8__detail10_Select1stESt8equal_toIS5_ESt4hashIS5_ENSE_18_Mod_range_hashingENSE_20_Default_ranged_hashENSE_20_Prime_rehash_policyENSE_17_Hashtable_traitsILb1ELb0ELb1EEEE5clearEv@Qt_6 6.6.0
 (optional=templinst)_ZNSt10_HashtableINSt7__cxx1112basic_stringIcSt11char_traitsIcESaIcEEESt4pairIKS5_N6device5mojom10SensorTypeEESaISB_ENSt8__detail10_Select1stESt8equal_toIS5_ESt4hashIS5_ENSD_18_Mod_range_hashingENSD_20_Default_ranged_hashENSD_20_Prime_rehash_policyENSD_17_Hashtable_traitsILb1ELb0ELb1EEEE4findERS7_@Qt_6 6.6.0
 (optional=templinst)_ZNSt10_HashtableINSt7__cxx1112basic_stringIcSt11char_traitsIcESaIcEEESt4pairIKS5_S5_ESaIS8_ENSt8__detail10_Select1stESt8equal_toIS5_ESt4hashIS5_ENSA_18_Mod_range_hashingENSA_20_Default_ranged_hashENSA_20_Prime_rehash_policyENSA_17_Hashtable_traitsILb1ELb0ELb1EEEE21_M_insert_unique_nodeEmmPNSA_10_Hash_nodeIS8_Lb1EEEm@Qt_6 6.6.0
 (optional=templinst)_ZNSt10_HashtableINSt7__cxx1112basic_stringIcSt11char_traitsIcESaIcEEESt4pairIKS5_S5_ESaIS8_ENSt8__detail10_Select1stESt8equal_toIS5_ESt4hashIS5_ENSA_18_Mod_range_hashingENSA_20_Default_ranged_hashENSA_20_Prime_rehash_policyENSA_17_Hashtable_traitsILb1ELb0ELb1EEEE4findERS7_@Qt_6 6.6.0
 (optional=templinst)_ZNSt10_HashtableINSt7__cxx1112basic_stringIcSt11char_traitsIcESaIcEEESt4pairIKS5_S5_ESaIS8_ENSt8__detail10_Select1stESt8equal_toIS5_ESt4hashIS5_ENSA_18_Mod_range_hashingENSA_20_Default_ranged_hashENSA_20_Prime_rehash_policyENSA_17_Hashtable_traitsILb1ELb0ELb1EEEE5clearEv@Qt_6 6.6.0
 (optional=templinst)_ZNSt10_HashtableINSt7__cxx1112basic_stringIcSt11char_traitsIcESaIcEEESt4pairIKS5_St6vectorIS5_SaIS5_EEESaISB_ENSt8__detail10_Select1stESt8equal_toIS5_ESt4hashIS5_ENSD_18_Mod_range_hashingENSD_20_Default_ranged_hashENSD_20_Prime_rehash_policyENSD_17_Hashtable_traitsILb1ELb0ELb1EEEE21_M_insert_unique_nodeEmmPNSD_10_Hash_nodeISB_Lb1EEEm@Qt_6 6.6.0
 (optional=templinst)_ZNSt10_HashtableINSt7__cxx1112basic_stringIcSt11char_traitsIcESaIcEEESt4pairIKS5_St6vectorIS5_SaIS5_EEESaISB_ENSt8__detail10_Select1stESt8equal_toIS5_ESt4hashIS5_ENSD_18_Mod_range_hashingENSD_20_Default_ranged_hashENSD_20_Prime_rehash_policyENSD_17_Hashtable_traitsILb1ELb0ELb1EEEE5clearEv@Qt_6 6.6.0
 (optional=templinst)_ZNSt10_HashtableINSt7__cxx1112basic_stringIcSt11char_traitsIcESaIcEEESt4pairIKS5_dESaIS8_ENSt8__detail10_Select1stESt8equal_toIS5_ESt4hashIS5_ENSA_18_Mod_range_hashingENSA_20_Default_ranged_hashENSA_20_Prime_rehash_policyENSA_17_Hashtable_traitsILb1ELb0ELb1EEEE4findERS7_@Qt_6 6.6.0
 (optional=templinst)_ZNSt10_HashtableINSt7__cxx1112basic_stringIcSt11char_traitsIcESaIcEEESt4pairIKS5_dESaIS8_ENSt8__detail10_Select1stESt8equal_toIS5_ESt4hashIS5_ENSA_18_Mod_range_hashingENSA_20_Default_ranged_hashENSA_20_Prime_rehash_policyENSA_17_Hashtable_traitsILb1ELb0ELb1EEEE5clearEv@Qt_6 6.6.0
 (optional=templinst)_ZNSt10_HashtableINSt7__cxx1112basic_stringIcSt11char_traitsIcESaIcEEESt4pairIKS5_dESaIS8_ENSt8__detail10_Select1stESt8equal_toIS5_ESt4hashIS5_ENSA_18_Mod_range_hashingENSA_20_Default_ranged_hashENSA_20_Prime_rehash_policyENSA_17_Hashtable_traitsILb1ELb0ELb1EEEE9_M_assignIRKSL_NSA_17_ReuseOrAllocNodeISaINSA_10_Hash_nodeIS8_Lb1EEEEEEEEvOT_RKT0_@Qt_6 6.6.0
 (optional=templinst)_ZNSt10_HashtableINSt7__cxx1112basic_stringIcSt11char_traitsIcESaIcEEESt4pairIKS5_iESaIS8_ENSt8__detail10_Select1stESt8equal_toIS5_ESt4hashIS5_ENSA_18_Mod_range_hashingENSA_20_Default_ranged_hashENSA_20_Prime_rehash_policyENSA_17_Hashtable_traitsILb1ELb0ELb1EEEE21_M_insert_unique_nodeEmmPNSA_10_Hash_nodeIS8_Lb1EEEm@Qt_6 6.6.0
 (optional=templinst)_ZNSt10_HashtableINSt7__cxx1112basic_stringIcSt11char_traitsIcESaIcEEESt4pairIKS5_iESaIS8_ENSt8__detail10_Select1stESt8equal_toIS5_ESt4hashIS5_ENSA_18_Mod_range_hashingENSA_20_Default_ranged_hashENSA_20_Prime_rehash_policyENSA_17_Hashtable_traitsILb1ELb0ELb1EEEE4findERS7_@Qt_6 6.6.0
 (optional=templinst)_ZNSt10_HashtableINSt7__cxx1112basic_stringIcSt11char_traitsIcESaIcEEESt4pairIKS5_jESaIS8_ENSt8__detail10_Select1stESt8equal_toIS5_ESt4hashIS5_ENSA_18_Mod_range_hashingENSA_20_Default_ranged_hashENSA_20_Prime_rehash_policyENSA_17_Hashtable_traitsILb1ELb0ELb1EEEE4findERS7_@Qt_6 6.6.0
 (optional=templinst)_ZNSt10_HashtableINSt7__cxx1112basic_stringIcSt11char_traitsIcESaIcEEESt4pairIKS5_mESaIS8_ENSt8__detail10_Select1stESt8equal_toIS5_ESt4hashIS5_ENSA_18_Mod_range_hashingENSA_20_Default_ranged_hashENSA_20_Prime_rehash_policyENSA_17_Hashtable_traitsILb1ELb0ELb1EEEE4findERS7_@Qt_6 6.6.0
 (optional=templinst)_ZNSt10_HashtableINSt7__cxx1112basic_stringIcSt11char_traitsIcESaIcEEESt4pairIKS5_mESaIS8_ENSt8__detail10_Select1stESt8equal_toIS5_ESt4hashIS5_ENSA_18_Mod_range_hashingENSA_20_Default_ranged_hashENSA_20_Prime_rehash_policyENSA_17_Hashtable_traitsILb1ELb0ELb1EEEE5clearEv@Qt_6 6.6.0
 (optional=templinst)_ZNSt10_HashtableIPvS0_SaIS0_ENSt8__detail9_IdentityESt8equal_toIS0_ESt4hashIS0_ENS2_18_Mod_range_hashingENS2_20_Default_ranged_hashENS2_20_Prime_rehash_policyENS2_17_Hashtable_traitsILb0ELb1ELb1EEEE8_M_eraseEmPNS2_15_Hash_node_baseEPNS2_10_Hash_nodeIS0_Lb0EEE@Qt_6 6.6.0
 (optional=templinst)_ZNSt10_HashtableIiSt4pairIKiNSt7__cxx1112basic_stringIDsSt11char_traitsIDsESaIDsEEEESaIS8_ENSt8__detail10_Select1stESt8equal_toIiESt4hashIiENSA_18_Mod_range_hashingENSA_20_Default_ranged_hashENSA_20_Prime_rehash_policyENSA_17_Hashtable_traitsILb0ELb0ELb1EEEE5clearEv@Qt_6 6.6.0
 (optional=templinst)_ZNSt10_HashtableIiSt4pairIKiNSt7__cxx1112basic_stringIcSt11char_traitsIcESaIcEEEESaIS8_ENSt8__detail10_Select1stESt8equal_toIiESt4hashIiENSA_18_Mod_range_hashingENSA_20_Default_ranged_hashENSA_20_Prime_rehash_policyENSA_17_Hashtable_traitsILb0ELb0ELb1EEEE21_M_insert_unique_nodeEmmPNSA_10_Hash_nodeIS8_Lb0EEEm@Qt_6 6.6.0
 (optional=templinst)_ZNSt10_HashtableIiSt4pairIKiNSt7__cxx1112basic_stringIcSt11char_traitsIcESaIcEEEESaIS8_ENSt8__detail10_Select1stESt8equal_toIiESt4hashIiENSA_18_Mod_range_hashingENSA_20_Default_ranged_hashENSA_20_Prime_rehash_policyENSA_17_Hashtable_traitsILb0ELb0ELb1EEEE5clearEv@Qt_6 6.6.0
 (optional=templinst)_ZNSt10_HashtableIiSt4pairIKiNSt7__cxx1112basic_stringIcSt11char_traitsIcESaIcEEEESaIS8_ENSt8__detail10_Select1stESt8equal_toIiESt4hashIiENSA_18_Mod_range_hashingENSA_20_Default_ranged_hashENSA_20_Prime_rehash_policyENSA_17_Hashtable_traitsILb0ELb0ELb1EEEEC1ERKSL_@Qt_6 6.6.0
 (optional=templinst)_ZNSt10_HashtableIiSt4pairIKiNSt7__cxx1112basic_stringIcSt11char_traitsIcESaIcEEEESaIS8_ENSt8__detail10_Select1stESt8equal_toIiESt4hashIiENSA_18_Mod_range_hashingENSA_20_Default_ranged_hashENSA_20_Prime_rehash_policyENSA_17_Hashtable_traitsILb0ELb0ELb1EEEEC2ERKSL_@Qt_6 6.6.0
 (optional=templinst)_ZNSt10_HashtableIiSt4pairIKijESaIS2_ENSt8__detail10_Select1stESt8equal_toIiESt4hashIiENS4_18_Mod_range_hashingENS4_20_Default_ranged_hashENS4_20_Prime_rehash_policyENS4_17_Hashtable_traitsILb0ELb0ELb1EEEE21_M_insert_unique_nodeEmmPNS4_10_Hash_nodeIS2_Lb0EEEm@Qt_6 6.6.0
 (optional=templinst)_ZNSt10_HashtableIiiSaIiENSt8__detail9_IdentityESt8equal_toIiESt4hashIiENS1_18_Mod_range_hashingENS1_20_Default_ranged_hashENS1_20_Prime_rehash_policyENS1_17_Hashtable_traitsILb0ELb1ELb1EEEE18_M_assign_elementsIRKSC_EEvOT_@Qt_6 6.6.0
 (optional=templinst)_ZNSt10_HashtableIiiSaIiENSt8__detail9_IdentityESt8equal_toIiESt4hashIiENS1_18_Mod_range_hashingENS1_20_Default_ranged_hashENS1_20_Prime_rehash_policyENS1_17_Hashtable_traitsILb0ELb1ELb1EEEE21_M_insert_unique_nodeEmmPNS1_10_Hash_nodeIiLb0EEEm@Qt_6 6.6.0
 (optional=templinst)_ZNSt10_HashtableIiiSaIiENSt8__detail9_IdentityESt8equal_toIiESt4hashIiENS1_18_Mod_range_hashingENS1_20_Default_ranged_hashENS1_20_Prime_rehash_policyENS1_17_Hashtable_traitsILb0ELb1ELb1EEEE5eraseENS1_20_Node_const_iteratorIiLb1ELb0EEE@Qt_6 6.6.0
 (optional=templinst)_ZNSt10_HashtableIiiSaIiENSt8__detail9_IdentityESt8equal_toIiESt4hashIiENS1_18_Mod_range_hashingENS1_20_Default_ranged_hashENS1_20_Prime_rehash_policyENS1_17_Hashtable_traitsILb0ELb1ELb1EEEE8_M_eraseEmPNS1_15_Hash_node_baseEPNS1_10_Hash_nodeIiLb0EEE@Qt_6 6.6.0
 (optional=templinst)_ZNSt10_HashtableIiiSaIiENSt8__detail9_IdentityESt8equal_toIiESt4hashIiENS1_18_Mod_range_hashingENS1_20_Default_ranged_hashENS1_20_Prime_rehash_policyENS1_17_Hashtable_traitsILb0ELb1ELb1EEEE9_M_assignIRKSC_NS1_17_ReuseOrAllocNodeISaINS1_10_Hash_nodeIiLb0EEEEEEEEvOT_RKT0_@Qt_6 6.6.0
 (optional=templinst)_ZNSt10_HashtableIiiSaIiENSt8__detail9_IdentityESt8equal_toIiESt4hashIiENS1_18_Mod_range_hashingENS1_20_Default_ranged_hashENS1_20_Prime_rehash_policyENS1_17_Hashtable_traitsILb0ELb1ELb1EEEED1Ev@Qt_6 6.6.0
 (optional=templinst)_ZNSt10_HashtableIiiSaIiENSt8__detail9_IdentityESt8equal_toIiESt4hashIiENS1_18_Mod_range_hashingENS1_20_Default_ranged_hashENS1_20_Prime_rehash_policyENS1_17_Hashtable_traitsILb0ELb1ELb1EEEED2Ev@Qt_6 6.6.0
 (optional=templinst)_ZNSt10_HashtableIjSt4pairIKjjESaIS2_ENSt8__detail10_Select1stESt8equal_toIjESt4hashIjENS4_18_Mod_range_hashingENS4_20_Default_ranged_hashENS4_20_Prime_rehash_policyENS4_17_Hashtable_traitsILb0ELb0ELb1EEEE21_M_insert_unique_nodeEmmPNS4_10_Hash_nodeIS2_Lb0EEEm@Qt_6 6.6.0
 (optional=templinst)_ZNSt10_HashtableIjSt4pairIKjjESaIS2_ENSt8__detail10_Select1stESt8equal_toIjESt4hashIjENS4_18_Mod_range_hashingENS4_20_Default_ranged_hashENS4_20_Prime_rehash_policyENS4_17_Hashtable_traitsILb0ELb0ELb1EEEE5eraseENS4_20_Node_const_iteratorIS2_Lb0ELb0EEE@Qt_6 6.6.0
 (optional=templinst)_ZNSt10_HashtableIjjSaIjENSt8__detail9_IdentityESt8equal_toIjESt4hashIjENS1_18_Mod_range_hashingENS1_20_Default_ranged_hashENS1_20_Prime_rehash_policyENS1_17_Hashtable_traitsILb0ELb1ELb1EEEE8_M_eraseEmPNS1_15_Hash_node_baseEPNS1_10_Hash_nodeIjLb0EEE@Qt_6 6.6.0
 (optional=templinst)_ZNSt10_HashtableImSt4pairIKmNSt7__cxx1112basic_stringIcSt11char_traitsIcESaIcEEEESaIS8_ENSt8__detail10_Select1stESt8equal_toImESt4hashImENSA_18_Mod_range_hashingENSA_20_Default_ranged_hashENSA_20_Prime_rehash_policyENSA_17_Hashtable_traitsILb0ELb0ELb1EEEE5clearEv@Qt_6 6.6.0
 _ZNSt10_HashtableImSt4pairIKmSt10unique_ptrIA_cSt14default_deleteIS3_EEESaIS7_ENSt8__detail10_Select1stESt8equal_toImESt4hashImENS9_18_Mod_range_hashingENS9_20_Default_ranged_hashENS9_20_Prime_rehash_policyENS9_17_Hashtable_traitsILb0ELb0ELb1EEEE21_M_insert_unique_nodeEmmPNS9_10_Hash_nodeIS7_Lb0EEEm@Qt_6 6.6.0
 (optional=templinst)_ZNSt10_HashtableImmSaImENSt8__detail9_IdentityESt8equal_toImESt4hashImENS1_18_Mod_range_hashingENS1_20_Default_ranged_hashENS1_20_Prime_rehash_policyENS1_17_Hashtable_traitsILb0ELb1ELb1EEEE21_M_insert_unique_nodeEmmPNS1_10_Hash_nodeImLb0EEEm@Qt_6 6.6.0
 (optional=templinst)_ZNSt10_HashtableImmSaImENSt8__detail9_IdentityESt8equal_toImESt4hashImENS1_18_Mod_range_hashingENS1_20_Default_ranged_hashENS1_20_Prime_rehash_policyENS1_17_Hashtable_traitsILb0ELb1ELb1EEEE8_M_eraseEmPNS1_15_Hash_node_baseEPNS1_10_Hash_nodeImLb0EEE@Qt_6 6.6.0
 (optional=templinst)_ZNSt10_HashtableImmSaImENSt8__detail9_IdentityESt8equal_toImESt4hashImENS1_18_Mod_range_hashingENS1_20_Default_ranged_hashENS1_20_Prime_rehash_policyENS1_17_Hashtable_traitsILb0ELb1ELb1EEEEC1IN9__gnu_cxx17__normal_iteratorIPmSt6vectorImS0_EEEEET_SK_mRKS6_RKS4_RKS0_St17integral_constantIbLb1EE@Qt_6 6.6.0
 (optional=templinst)_ZNSt10_HashtableImmSaImENSt8__detail9_IdentityESt8equal_toImESt4hashImENS1_18_Mod_range_hashingENS1_20_Default_ranged_hashENS1_20_Prime_rehash_policyENS1_17_Hashtable_traitsILb0ELb1ELb1EEEEC2IN9__gnu_cxx17__normal_iteratorIPmSt6vectorImS0_EEEEET_SK_mRKS6_RKS4_RKS0_St17integral_constantIbLb1EE@Qt_6 6.6.0
 (optional=templinst)_ZNSt10_HashtableItSt4pairIKtSt6vectorIhSaIhEEESaIS5_ENSt8__detail10_Select1stESt8equal_toItESt4hashItENS7_18_Mod_range_hashingENS7_20_Default_ranged_hashENS7_20_Prime_rehash_policyENS7_17_Hashtable_traitsILb0ELb0ELb1EEEE5clearEv@Qt_6 6.6.0
 (optional=templinst)_ZNSt11_Deque_baseIN3net19HostResolverManager8TaskTypeESaIS2_EE17_M_initialize_mapEm@Qt_6 6.6.0
 (optional=templinst)_ZNSt11_Deque_baseIN3net19HostResolverManager8TaskTypeESaIS2_EED1Ev@Qt_6 6.6.0
 (optional=templinst)_ZNSt11_Deque_baseIN3net19HostResolverManager8TaskTypeESaIS2_EED2Ev@Qt_6 6.6.0
 (optional=templinst)_ZNSt11_Deque_baseINSt8__detail9_StateSeqINSt7__cxx1112regex_traitsIcEEEESaIS5_EED1Ev@Qt_6 6.6.0
 (optional=templinst)_ZNSt11_Deque_baseINSt8__detail9_StateSeqINSt7__cxx1112regex_traitsIcEEEESaIS5_EED2Ev@Qt_6 6.6.0
 (optional=templinst)_ZNSt11_Deque_baseIdSaIdEE17_M_initialize_mapEm@Qt_6 6.6.0
 (optional=templinst)_ZNSt11_Deque_baseIdSaIdEED1Ev@Qt_6 6.6.0
 (optional=templinst)_ZNSt11_Deque_baseIdSaIdEED2Ev@Qt_6 6.6.0
 (optional=templinst)_ZNSt11_Deque_baseIiSaIiEE17_M_initialize_mapEm@Qt_6 6.6.0
 (optional=templinst)_ZNSt11_Deque_baseIiSaIiEED1Ev@Qt_6 6.6.0
 (optional=templinst)_ZNSt11_Deque_baseIiSaIiEED2Ev@Qt_6 6.6.0
 (optional=templinst)_ZNSt11_Deque_baseIjSaIjEE17_M_initialize_mapEm@Qt_6 6.6.0
 (optional=templinst)_ZNSt11_Deque_baseIjSaIjEED1Ev@Qt_6 6.6.0
 (optional=templinst)_ZNSt11_Deque_baseIjSaIjEED2Ev@Qt_6 6.6.0
 (optional=templinst)_ZNSt11_Deque_baseIlSaIlEED1Ev@Qt_6 6.6.0
 (optional=templinst)_ZNSt11_Deque_baseIlSaIlEED2Ev@Qt_6 6.6.0
 (optional=templinst)_ZNSt11_Deque_baseImSaImEE17_M_initialize_mapEm@Qt_6 6.6.0
 (optional=templinst)_ZNSt17_Temporary_bufferIN9__gnu_cxx17__normal_iteratorIPN12favicon_base8IconTypeESt6vectorIS3_SaIS3_EEEES3_EC1ES8_l@Qt_6 6.6.0
 (optional=templinst)_ZNSt17_Temporary_bufferIN9__gnu_cxx17__normal_iteratorIPN12favicon_base8IconTypeESt6vectorIS3_SaIS3_EEEES3_EC2ES8_l@Qt_6 6.6.0
 (optional=templinst)_ZNSt17_Temporary_bufferIN9__gnu_cxx17__normal_iteratorIPN6device21FidoTransportProtocolESt6vectorIS3_SaIS3_EEEES3_EC1ES8_l@Qt_6 6.6.0
 (optional=templinst)_ZNSt17_Temporary_bufferIN9__gnu_cxx17__normal_iteratorIPN6device21FidoTransportProtocolESt6vectorIS3_SaIS3_EEEES3_EC2ES8_l@Qt_6 6.6.0
 (optional=templinst)_ZNSt17_Temporary_bufferIN9__gnu_cxx17__normal_iteratorIPNSt7__cxx1112basic_stringIDsSt11char_traitsIDsESaIDsEEESt6vectorIS7_SaIS7_EEEES7_EC1ESC_l@Qt_6 6.6.0
 (optional=templinst)_ZNSt17_Temporary_bufferIN9__gnu_cxx17__normal_iteratorIPNSt7__cxx1112basic_stringIDsSt11char_traitsIDsESaIDsEEESt6vectorIS7_SaIS7_EEEES7_EC2ESC_l@Qt_6 6.6.0
 (optional=templinst)_ZNSt17_Temporary_bufferIN9__gnu_cxx17__normal_iteratorIPNSt7__cxx1112basic_stringIcSt11char_traitsIcESaIcEEESt6vectorIS7_SaIS7_EEEES7_EC1ESC_l@Qt_6 6.6.0
 (optional=templinst)_ZNSt17_Temporary_bufferIN9__gnu_cxx17__normal_iteratorIPNSt7__cxx1112basic_stringIcSt11char_traitsIcESaIcEEESt6vectorIS7_SaIS7_EEEES7_EC2ESC_l@Qt_6 6.6.0
 (optional=templinst)_ZNSt17_Temporary_bufferIN9__gnu_cxx17__normal_iteratorIPSt4pairIN10variations5mojom19GoogleWebVisibilityENSt7__cxx1112basic_stringIcSt11char_traitsIcESaIcEEEESt6vectorISC_SaISC_EEEESC_EC1ESH_l@Qt_6 6.6.0
 (optional=templinst)_ZNSt17_Temporary_bufferIN9__gnu_cxx17__normal_iteratorIPSt4pairIN10variations5mojom19GoogleWebVisibilityENSt7__cxx1112basic_stringIcSt11char_traitsIcESaIcEEEESt6vectorISC_SaISC_EEEESC_EC2ESH_l@Qt_6 6.6.0
 (optional=templinst)_ZNSt17_Temporary_bufferIN9__gnu_cxx17__normal_iteratorIPSt4pairIN17url_pattern_index5proto11ElementTypeENS3_4flat11ElementTypeEESt6vectorIS8_SaIS8_EEEES8_EC1ESD_l@Qt_6 6.6.0
 (optional=templinst)_ZNSt17_Temporary_bufferIN9__gnu_cxx17__normal_iteratorIPSt4pairIN17url_pattern_index5proto11ElementTypeENS3_4flat11ElementTypeEESt6vectorIS8_SaIS8_EEEES8_EC2ESD_l@Qt_6 6.6.0
 (optional=templinst)_ZNSt17_Temporary_bufferIN9__gnu_cxx17__normal_iteratorIPSt4pairIN17url_pattern_index5proto14ActivationTypeENS3_4flat14ActivationTypeEESt6vectorIS8_SaIS8_EEEES8_EC1ESD_l@Qt_6 6.6.0
 (optional=templinst)_ZNSt17_Temporary_bufferIN9__gnu_cxx17__normal_iteratorIPSt4pairIN17url_pattern_index5proto14ActivationTypeENS3_4flat14ActivationTypeEESt6vectorIS8_SaIS8_EEEES8_EC2ESD_l@Qt_6 6.6.0
 (optional=templinst)_ZNSt17_Temporary_bufferIN9__gnu_cxx17__normal_iteratorIPSt4pairIN2ui11NativeTheme16SystemThemeColorEjESt6vectorIS6_SaIS6_EEEES6_EC1ESB_l@Qt_6 6.6.0
 (optional=templinst)_ZNSt17_Temporary_bufferIN9__gnu_cxx17__normal_iteratorIPSt4pairIN2ui11NativeTheme16SystemThemeColorEjESt6vectorIS6_SaIS6_EEEES6_EC2ESB_l@Qt_6 6.6.0
 (optional=templinst)_ZNSt17_Temporary_bufferIN9__gnu_cxx17__normal_iteratorIPSt4pairIN7network5mojom18WebClientHintsTypeEN5blink5mojom24PermissionsPolicyFeatureEESt6vectorIS9_SaIS9_EEEES9_EC1ESE_l@Qt_6 6.6.0
 (optional=templinst)_ZNSt17_Temporary_bufferIN9__gnu_cxx17__normal_iteratorIPSt4pairIN7network5mojom18WebClientHintsTypeEN5blink5mojom24PermissionsPolicyFeatureEESt6vectorIS9_SaIS9_EEEES9_EC2ESE_l@Qt_6 6.6.0
 (optional=templinst)_ZNSt17_Temporary_bufferIN9__gnu_cxx17__normal_iteratorIPSt4pairIN7network5mojom18WebClientHintsTypeENSt7__cxx1112basic_stringIcSt11char_traitsIcESaIcEEEESt6vectorISC_SaISC_EEEESC_EC1ESH_l@Qt_6 6.6.0
 (optional=templinst)_ZNSt17_Temporary_bufferIN9__gnu_cxx17__normal_iteratorIPSt4pairIN7network5mojom18WebClientHintsTypeENSt7__cxx1112basic_stringIcSt11char_traitsIcESaIcEEEESt6vectorISC_SaISC_EEEESC_EC2ESH_l@Qt_6 6.6.0
 (optional=templinst)_ZNSt17_Temporary_bufferIN9__gnu_cxx17__normal_iteratorIPSt4pairINSt7__cxx1112basic_stringIcSt11char_traitsIcESaIcEEEN5media8internal8MimeUtil5CodecEESt6vectorISD_SaISD_EEEESD_EC1ESI_l@Qt_6 6.6.0
 (optional=templinst)_ZNSt17_Temporary_bufferIN9__gnu_cxx17__normal_iteratorIPSt4pairINSt7__cxx1112basic_stringIcSt11char_traitsIcESaIcEEEN5media8internal8MimeUtil5CodecEESt6vectorISD_SaISD_EEEESD_EC2ESI_l@Qt_6 6.6.0
 (optional=templinst)_ZNSt17_Temporary_bufferIN9__gnu_cxx17__normal_iteratorIPSt4pairINSt7__cxx1112basic_stringIcSt11char_traitsIcESaIcEEES8_ESt6vectorIS9_SaIS9_EEEES9_EC1ESE_l@Qt_6 6.6.0
 (optional=templinst)_ZNSt17_Temporary_bufferIN9__gnu_cxx17__normal_iteratorIPSt4pairINSt7__cxx1112basic_stringIcSt11char_traitsIcESaIcEEES8_ESt6vectorIS9_SaIS9_EEEES9_EC2ESE_l@Qt_6 6.6.0
 (optional=templinst)_ZNSt17_Temporary_bufferIN9__gnu_cxx17__normal_iteratorIPSt4pairINSt7__cxx1112basic_stringIcSt11char_traitsIcESaIcEEESt6vectorIS8_SaIS8_EEES9_ISC_SaISC_EEEESC_EC1ESG_l@Qt_6 6.6.0
 (optional=templinst)_ZNSt17_Temporary_bufferIN9__gnu_cxx17__normal_iteratorIPSt4pairINSt7__cxx1112basic_stringIcSt11char_traitsIcESaIcEEESt6vectorIS8_SaIS8_EEES9_ISC_SaISC_EEEESC_EC2ESG_l@Qt_6 6.6.0
 (optional=templinst)_ZNSt17_Temporary_bufferIN9__gnu_cxx17__normal_iteratorIPSt4pairINSt7__cxx1112basic_stringIcSt11char_traitsIcESaIcEEEbESt6vectorIS9_SaIS9_EEEES9_EC1ESE_l@Qt_6 6.6.0
 (optional=templinst)_ZNSt17_Temporary_bufferIN9__gnu_cxx17__normal_iteratorIPSt4pairINSt7__cxx1112basic_stringIcSt11char_traitsIcESaIcEEEbESt6vectorIS9_SaIS9_EEEES9_EC2ESE_l@Qt_6 6.6.0
 (optional=templinst)_ZNSt17_Temporary_bufferIN9__gnu_cxx17__normal_iteratorIPSt4pairINSt7__cxx1112basic_stringIcSt11char_traitsIcESaIcEEEdESt6vectorIS9_SaIS9_EEEES9_EC1ESE_l@Qt_6 6.6.0
 (optional=templinst)_ZNSt17_Temporary_bufferIN9__gnu_cxx17__normal_iteratorIPSt4pairINSt7__cxx1112basic_stringIcSt11char_traitsIcESaIcEEEdESt6vectorIS9_SaIS9_EEEES9_EC2ESE_l@Qt_6 6.6.0
 (optional=templinst)_ZNSt17_Temporary_bufferIN9__gnu_cxx17__normal_iteratorIPSt4pairIS2_INSt7__cxx1112basic_stringIcSt11char_traitsIcESaIcEEES8_EbESt6vectorISA_SaISA_EEEESA_EC1ESF_l@Qt_6 6.6.0
 (optional=templinst)_ZNSt17_Temporary_bufferIN9__gnu_cxx17__normal_iteratorIPSt4pairIS2_INSt7__cxx1112basic_stringIcSt11char_traitsIcESaIcEEES8_EbESt6vectorISA_SaISA_EEEESA_EC2ESF_l@Qt_6 6.6.0
 (optional=templinst)_ZNSt17_Temporary_bufferIN9__gnu_cxx17__normal_iteratorIPSt4pairISt6bitsetILm8EEiESt6vectorIS5_SaIS5_EEEES5_EC1ESA_l@Qt_6 6.6.0
 (optional=templinst)_ZNSt17_Temporary_bufferIN9__gnu_cxx17__normal_iteratorIPSt4pairISt6bitsetILm8EEiESt6vectorIS5_SaIS5_EEEES5_EC2ESA_l@Qt_6 6.6.0
 (optional=templinst)_ZNSt17_Temporary_bufferIN9__gnu_cxx17__normal_iteratorIPSt4pairIijESt6vectorIS3_SaIS3_EEEES3_EC1ES8_l@Qt_6 6.6.0
 (optional=templinst)_ZNSt17_Temporary_bufferIN9__gnu_cxx17__normal_iteratorIPSt4pairIijESt6vectorIS3_SaIS3_EEEES3_EC2ES8_l@Qt_6 6.6.0
 (optional=templinst)_ZNSt17_Temporary_bufferIN9__gnu_cxx17__normal_iteratorIPSt4pairIjSt6vectorImSaImEEES3_IS6_SaIS6_EEEES6_EC1ESA_l@Qt_6 6.6.0
 (optional=templinst)_ZNSt17_Temporary_bufferIN9__gnu_cxx17__normal_iteratorIPSt4pairIjSt6vectorImSaImEEES3_IS6_SaIS6_EEEES6_EC2ESA_l@Qt_6 6.6.0
 (optional=templinst)_ZNSt17_Temporary_bufferIN9__gnu_cxx17__normal_iteratorIPSt4pairImiESt6vectorIS3_SaIS3_EEEES3_EC1ES8_l@Qt_6 6.6.0
 (optional=templinst)_ZNSt17_Temporary_bufferIN9__gnu_cxx17__normal_iteratorIPSt4pairImiESt6vectorIS3_SaIS3_EEEES3_EC2ES8_l@Qt_6 6.6.0
 (optional=templinst)_ZNSt17_Temporary_bufferIN9__gnu_cxx17__normal_iteratorIPSt4pairImlESt6vectorIS3_SaIS3_EEEES3_EC1ES8_l@Qt_6 6.6.0
 (optional=templinst)_ZNSt17_Temporary_bufferIN9__gnu_cxx17__normal_iteratorIPSt4pairImlESt6vectorIS3_SaIS3_EEEES3_EC2ES8_l@Qt_6 6.6.0
 (optional=templinst)_ZNSt17_Temporary_bufferIN9__gnu_cxx17__normal_iteratorIPSt4pairItSt6vectorIhSaIhEEES3_IS6_SaIS6_EEEES6_EC1ESA_l@Qt_6 6.6.0
 (optional=templinst)_ZNSt17_Temporary_bufferIN9__gnu_cxx17__normal_iteratorIPSt4pairItSt6vectorIhSaIhEEES3_IS6_SaIS6_EEEES6_EC2ESA_l@Qt_6 6.6.0
 (optional=templinst)_ZNSt17_Temporary_bufferIN9__gnu_cxx17__normal_iteratorIPiSt6vectorIiSaIiEEEEiEC1ES6_l@Qt_6 6.6.0
 (optional=templinst)_ZNSt17_Temporary_bufferIN9__gnu_cxx17__normal_iteratorIPiSt6vectorIiSaIiEEEEiEC2ES6_l@Qt_6 6.6.0
 (optional=templinst)_ZNSt17_Temporary_bufferIN9__gnu_cxx17__normal_iteratorIPjSt6vectorIjSaIjEEEEjEC1ES6_l@Qt_6 6.6.0
 (optional=templinst)_ZNSt17_Temporary_bufferIN9__gnu_cxx17__normal_iteratorIPjSt6vectorIjSaIjEEEEjEC2ES6_l@Qt_6 6.6.0
 (optional=templinst)_ZNSt17_Temporary_bufferIPSt4pairItDsES1_EC1ES2_l@Qt_6 6.6.0
 (optional=templinst)_ZNSt17_Temporary_bufferIPSt4pairItDsES1_EC2ES2_l@Qt_6 6.6.0
 (optional=templinst)_ZNSt23mersenne_twister_engineImLm32ELm624ELm397ELm31ELm2567483615ELm11ELm4294967295ELm7ELm2636928640ELm15ELm4022730752ELm18ELm1812433253EE11_M_gen_randEv@Qt_6 6.6.0
 (optional=templinst)_ZNSt5dequeIN19CFX_CSSSyntaxParser4ModeESaIS1_EE16_M_push_back_auxIJRKS1_EEEvDpOT_@Qt_6 6.6.0
 (optional=templinst)_ZNSt5dequeIN3net19HostResolverManager8TaskTypeESaIS2_EE17_M_reallocate_mapEmb@Qt_6 6.6.0
 (optional=templinst)_ZNSt5dequeIN3net19HostResolverManager8TaskTypeESaIS2_EE8_M_eraseESt15_Deque_iteratorIS2_RS2_PS2_E@Qt_6 6.6.0
 (optional=templinst)_ZNSt5dequeINSt7__cxx1112basic_stringIcSt11char_traitsIcESaIcEEESaIS5_EE16_M_push_back_auxIJRKS5_EEEvDpOT_@Qt_6 6.6.0
 (optional=templinst)_ZNSt5dequeINSt7__cxx1112basic_stringIcSt11char_traitsIcESaIcEEESaIS5_EE17_M_reallocate_mapEmb@Qt_6 6.6.0
 (optional=templinst)_ZNSt5dequeINSt8__detail9_StateSeqINSt7__cxx1112regex_traitsIcEEEESaIS5_EE16_M_push_back_auxIJRKS5_EEEvDpOT_@Qt_6 6.6.0
 (optional=templinst)_ZNSt5dequeINSt8__detail9_StateSeqINSt7__cxx1112regex_traitsIcEEEESaIS5_EE17_M_reallocate_mapEmb@Qt_6 6.6.0
 (optional=templinst)_ZNSt5dequeISt4pairIliESaIS1_EE8_M_eraseESt15_Deque_iteratorIS1_RS1_PS1_ES7_@Qt_6 6.6.0
 (optional=templinst)_ZNSt5dequeISt6threadSaIS0_EE16_M_push_back_auxIJMN5angle15AsyncWorkerPoolEFvvEPS5_EEEvDpOT_@Qt_6 6.6.0
 (optional=templinst)_ZNSt5dequeISt6vectorINSt7__cxx1112basic_stringIDsSt11char_traitsIDsESaIDsEEESaIS6_EESaIS8_EE16_M_push_back_auxIJRKS8_EEEvDpOT_@Qt_6 6.6.0
 (optional=templinst)_ZNSt5dequeISt6vectorINSt7__cxx1112basic_stringIDsSt11char_traitsIDsESaIDsEEESaIS6_EESaIS8_EE17_M_reallocate_mapEmb@Qt_6 6.6.0
 (optional=templinst)_ZNSt5dequeIfSaIfEE17_M_reallocate_mapEmb@Qt_6 6.6.0
 (optional=templinst)_ZNSt5dequeIiSaIiEE16_M_push_back_auxIJRKiEEEvDpOT_@Qt_6 6.6.0
 (optional=templinst)_ZNSt5dequeIiSaIiEE17_M_reallocate_mapEmb@Qt_6 6.6.0
 (optional=templinst)_ZNSt5dequeIjSaIjEE16_M_push_back_auxIJRKjEEEvDpOT_@Qt_6 6.6.0
 (optional=templinst)_ZNSt5dequeIjSaIjEE17_M_reallocate_mapEmb@Qt_6 6.6.0
 (optional=templinst)_ZNSt5dequeIlSaIlEE16_M_push_back_auxIJRKlEEEvDpOT_@Qt_6 6.6.0
 (optional=templinst)_ZNSt5dequeIlSaIlEE17_M_reallocate_mapEmb@Qt_6 6.6.0
 (optional=templinst)_ZNSt5dequeImSaImEE16_M_push_back_auxIJRKmEEEvDpOT_@Qt_6 6.6.0
 (optional=templinst)_ZNSt5dequeImSaImEE17_M_reallocate_mapEmb@Qt_6 6.6.0
 (optional=templinst)_ZNSt7__cxx1112basic_stringIDsSt11char_traitsIDsESaIDsEE15_M_replace_coldEPDsmPKDsmm@Qt_6 6.6.0
 (optional=templinst)_ZNSt8_Rb_treeI10QByteArraySt4pairIKS0_S0_ESt10_Select1stIS3_ESt4lessIS0_ESaIS3_EE23_M_get_insert_equal_posERS2_@Qt_6 6.6.0
 (optional=templinst)_ZNSt8_Rb_treeI10QByteArraySt4pairIKS0_S0_ESt10_Select1stIS3_ESt4lessIS0_ESaIS3_EE24_M_get_insert_unique_posERS2_@Qt_6 6.6.0
 (optional=templinst)_ZNSt8_Rb_treeI10QByteArraySt4pairIKS0_S0_ESt10_Select1stIS3_ESt4lessIS0_ESaIS3_EE28_M_get_insert_hint_equal_posESt23_Rb_tree_const_iteratorIS3_ERS2_@Qt_6 6.6.0
 (optional=templinst)_ZNSt8_Rb_treeI10QByteArraySt4pairIKS0_S0_ESt10_Select1stIS3_ESt4lessIS0_ESaIS3_EE29_M_get_insert_hint_unique_posESt23_Rb_tree_const_iteratorIS3_ERS2_@Qt_6 6.6.0
 (optional=templinst)_ZNSt8_Rb_treeI4QUrlSt4pairIKS0_bESt10_Select1stIS3_ESt4lessIS0_ESaIS3_EE24_M_get_insert_unique_posERS2_@Qt_6 6.6.0
 (optional=templinst)_ZNSt8_Rb_treeI4QUrlSt4pairIKS0_bESt10_Select1stIS3_ESt4lessIS0_ESaIS3_EE29_M_get_insert_hint_unique_posESt23_Rb_tree_const_iteratorIS3_ERS2_@Qt_6 6.6.0
 (optional=templinst)_ZNSt8_Rb_treeI7QStringSt4pairIKS0_8QVariantESt10_Select1stIS4_ESt4lessIS0_ESaIS4_EE24_M_get_insert_unique_posERS2_@Qt_6 6.6.0
 (optional=templinst)_ZNSt8_Rb_treeI7QStringSt4pairIKS0_8QVariantESt10_Select1stIS4_ESt4lessIS0_ESaIS4_EE29_M_get_insert_hint_unique_posESt23_Rb_tree_const_iteratorIS4_ERS2_@Qt_6 6.6.0
 (optional=templinst)_ZNSt8_Rb_treeIKNSt7__cxx1112basic_stringIcSt11char_traitsIcESaIcEEESt4pairIS6_S5_ESt10_Select1stIS8_ESt4lessIS6_ESaIS8_EE24_M_get_insert_unique_posERS6_@Qt_6 6.6.0
 (optional=templinst)_ZNSt8_Rb_treeIKNSt7__cxx1112basic_stringIcSt11char_traitsIcESaIcEEESt4pairIS6_S5_ESt10_Select1stIS8_ESt4lessIS6_ESaIS8_EE29_M_get_insert_hint_unique_posESt23_Rb_tree_const_iteratorIS8_ERS6_@Qt_6 6.6.0
 (optional=templinst)_ZNSt8_Rb_treeIKNSt7__cxx1112basic_stringIcSt11char_traitsIcESaIcEEESt4pairIS6_S5_ESt10_Select1stIS8_ESt4lessIS6_ESaIS8_EE4findERS6_@Qt_6 6.6.0
 (optional=templinst)_ZNSt8_Rb_treeIKNSt7__cxx1112basic_stringIcSt11char_traitsIcESaIcEEESt4pairIS6_S6_ESt10_Select1stIS8_ESt4lessIS6_ESaIS8_EE22_M_emplace_hint_uniqueIJS7_IS5_S5_EEEESt17_Rb_tree_iteratorIS8_ESt23_Rb_tree_const_iteratorIS8_EDpOT_@Qt_6 6.6.0
 (optional=templinst)_ZNSt8_Rb_treeIKNSt7__cxx1112basic_stringIcSt11char_traitsIcESaIcEEESt4pairIS6_S6_ESt10_Select1stIS8_ESt4lessIS6_ESaIS8_EE24_M_get_insert_unique_posERS6_@Qt_6 6.6.0
 (optional=templinst)_ZNSt8_Rb_treeIKNSt7__cxx1112basic_stringIcSt11char_traitsIcESaIcEEESt4pairIS6_S6_ESt10_Select1stIS8_ESt4lessIS6_ESaIS8_EE29_M_get_insert_hint_unique_posESt23_Rb_tree_const_iteratorIS8_ERS6_@Qt_6 6.6.0
 (optional=templinst)_ZNSt8_Rb_treeIN10extensions12PreloadCheck5ErrorES2_St9_IdentityIS2_ESt4lessIS2_ESaIS2_EE16_M_insert_uniqueIS2_EESt4pairISt17_Rb_tree_iteratorIS2_EbEOT_@Qt_6 6.6.0
 (optional=templinst)_ZNSt8_Rb_treeIN16device_event_log7LogTypeES1_St9_IdentityIS1_ESt4lessIS1_ESaIS1_EE16_M_insert_uniqueIRKS1_EESt4pairISt17_Rb_tree_iteratorIS1_EbEOT_@Qt_6 6.6.0
 (optional=templinst)_ZNSt8_Rb_treeIN2ax5mojom5EventES2_St9_IdentityIS2_ESt4lessIS2_ESaIS2_EE16_M_insert_uniqueIRKS2_EESt4pairISt17_Rb_tree_iteratorIS2_EbEOT_@Qt_6 6.6.0
 (optional=templinst)_ZNSt8_Rb_treeIN2ui12KeyboardCodeES1_St9_IdentityIS1_ESt4lessIS1_ESaIS1_EE16_M_insert_uniqueIRKS1_EESt4pairISt17_Rb_tree_iteratorIS1_EbEOT_@Qt_6 6.6.0
 (optional=templinst)_ZNSt8_Rb_treeIN2v88internal12ElementsKindES2_St9_IdentityIS2_ESt4lessIS2_ESaIS2_EE16_M_insert_uniqueIRKS2_EESt4pairISt17_Rb_tree_iteratorIS2_EbEOT_@Qt_6 6.6.0
 (optional=templinst)_ZNSt8_Rb_treeIN3net8HttpAuth6SchemeES2_St9_IdentityIS2_ESt4lessIS2_ESaIS2_EE16_M_insert_uniqueIRKS2_EESt4pairISt17_Rb_tree_iteratorIS2_EbEOT_@Qt_6 6.6.0
 (optional=templinst)_ZNSt8_Rb_treeIN3rtc6Socket6OptionESt4pairIKS2_iESt10_Select1stIS5_ESt4lessIS2_ESaIS5_EE22_M_emplace_hint_uniqueIJS3_IS2_iEEEESt17_Rb_tree_iteratorIS5_ESt23_Rb_tree_const_iteratorIS5_EDpOT_@Qt_6 6.6.0
 (optional=templinst)_ZNSt8_Rb_treeIN4base11trace_event23MemoryDumpLevelOfDetailES2_St9_IdentityIS2_ESt4lessIS2_ESaIS2_EE16_M_insert_uniqueIS2_EESt4pairISt17_Rb_tree_iteratorIS2_EbEOT_@Qt_6 6.6.0
 (optional=templinst)_ZNSt8_Rb_treeIN5blink14PermissionTypeES1_St9_IdentityIS1_ESt4lessIS1_ESaIS1_EE16_M_insert_uniqueIRKS1_EESt4pairISt17_Rb_tree_iteratorIS1_EbEOT_@Qt_6 6.6.0
 (optional=templinst)_ZNSt8_Rb_treeIN5blink5mojom10WebFeatureES2_St9_IdentityIS2_ESt4lessIS2_ESaIS2_EE16_M_insert_uniqueIRKS2_EESt4pairISt17_Rb_tree_iteratorIS2_EbEOT_@Qt_6 6.6.0
 (optional=templinst)_ZNSt8_Rb_treeIN5blink5mojom23EffectiveConnectionTypeESt4pairIKS2_iESt10_Select1stIS5_ESt4lessIS2_ESaIS5_EE22_M_emplace_hint_uniqueIJS3_IS2_iEEEESt17_Rb_tree_iteratorIS5_ESt23_Rb_tree_const_iteratorIS5_EDpOT_@Qt_6 6.6.0
 (optional=templinst)_ZNSt8_Rb_treeIN5blink5mojom24PermissionsPolicyFeatureES2_St9_IdentityIS2_ESt4lessIS2_ESaIS2_EE16_M_insert_uniqueIS2_EESt4pairISt17_Rb_tree_iteratorIS2_EbEOT_@Qt_6 6.6.0
 (optional=templinst)_ZNSt8_Rb_treeIN6device3pin11PermissionsES2_St9_IdentityIS2_ESt4lessIS2_ESaIS2_EE17_M_emplace_uniqueIJS2_EEESt4pairISt17_Rb_tree_iteratorIS2_EbEDpOT_@Qt_6 6.6.0
 (optional=templinst)_ZNSt8_Rb_treeIN7content20StoragePartitionImpl18DataDeletionHelper15TracingDataTypeES3_St9_IdentityIS3_ESt4lessIS3_ESaIS3_EE16_M_insert_uniqueIRKS3_EESt4pairISt17_Rb_tree_iteratorIS3_EbEOT_@Qt_6 6.6.0
 (optional=templinst)_ZNSt8_Rb_treeIN7content23BrowsingDataRemoverImpl15TracingDataTypeES2_St9_IdentityIS2_ESt4lessIS2_ESaIS2_EE16_M_insert_uniqueIRKS2_EESt4pairISt17_Rb_tree_iteratorIS2_EbEOT_@Qt_6 6.6.0
 (optional=templinst)_ZNSt8_Rb_treeIN7cricket9MediaTypeES1_St9_IdentityIS1_ESt4lessIS1_ESaIS1_EE16_M_insert_uniqueIS1_EESt4pairISt17_Rb_tree_iteratorIS1_EbEOT_@Qt_6 6.6.0
 (optional=templinst)_ZNSt8_Rb_treeIN7display16DisplayPlacement8PositionES2_St9_IdentityIS2_ESt4lessIS2_ESaIS2_EE17_M_emplace_uniqueIJRKS2_EEESt4pairISt17_Rb_tree_iteratorIS2_EbEDpOT_@Qt_6 6.6.0
 (optional=templinst)_ZNSt8_Rb_treeIN7network5mojom18WebClientHintsTypeES2_St9_IdentityIS2_ESt4lessIS2_ESaIS2_EE16_M_assign_uniqueIPKS2_EEvT_SC_@Qt_6 6.6.0
 (optional=templinst)_ZNSt8_Rb_treeINSt7__cxx1112basic_stringIDsSt11char_traitsIDsESaIDsEEES5_St9_IdentityIS5_ESt4lessIS5_ESaIS5_EE11equal_rangeERKS5_@Qt_6 6.6.0
 (optional=templinst)_ZNSt8_Rb_treeINSt7__cxx1112basic_stringIDsSt11char_traitsIDsESaIDsEEES5_St9_IdentityIS5_ESt4lessIS5_ESaIS5_EE16_M_insert_uniqueIS5_EESt4pairISt17_Rb_tree_iteratorIS5_EbEOT_@Qt_6 6.6.0
 (optional=templinst)_ZNSt8_Rb_treeINSt7__cxx1112basic_stringIDsSt11char_traitsIDsESaIDsEEES5_St9_IdentityIS5_ESt4lessIS5_ESaIS5_EE24_M_get_insert_unique_posERKS5_@Qt_6 6.6.0
 (optional=templinst)_ZNSt8_Rb_treeINSt7__cxx1112basic_stringIDsSt11char_traitsIDsESaIDsEEES5_St9_IdentityIS5_ESt4lessIS5_ESaIS5_EE29_M_get_insert_hint_unique_posESt23_Rb_tree_const_iteratorIS5_ERKS5_@Qt_6 6.6.0
 (optional=templinst)_ZNSt8_Rb_treeINSt7__cxx1112basic_stringIDsSt11char_traitsIDsESaIDsEEESt4pairIKS5_S6_IilEESt10_Select1stIS9_ESt4lessIS5_ESaIS9_EE11equal_rangeERS7_@Qt_6 6.6.0
 (optional=templinst)_ZNSt8_Rb_treeINSt7__cxx1112basic_stringIDsSt11char_traitsIDsESaIDsEEESt4pairIKS5_S6_IilEESt10_Select1stIS9_ESt4lessIS5_ESaIS9_EE24_M_get_insert_unique_posERS7_@Qt_6 6.6.0
 (optional=templinst)_ZNSt8_Rb_treeINSt7__cxx1112basic_stringIDsSt11char_traitsIDsESaIDsEEESt4pairIKS5_S6_IilEESt10_Select1stIS9_ESt4lessIS5_ESaIS9_EE29_M_get_insert_hint_unique_posESt23_Rb_tree_const_iteratorIS9_ERS7_@Qt_6 6.6.0
 (optional=templinst)_ZNSt8_Rb_treeINSt7__cxx1112basic_stringIDsSt11char_traitsIDsESaIDsEEESt4pairIKS5_lESt10_Select1stIS8_ESt4lessIS5_ESaIS8_EE24_M_get_insert_unique_posERS7_@Qt_6 6.6.0
 (optional=templinst)_ZNSt8_Rb_treeINSt7__cxx1112basic_stringIDsSt11char_traitsIDsESaIDsEEESt4pairIKS5_lESt10_Select1stIS8_ESt4lessIS5_ESaIS8_EE29_M_get_insert_hint_unique_posESt23_Rb_tree_const_iteratorIS8_ERS7_@Qt_6 6.6.0
 (optional=templinst)_ZNSt8_Rb_treeINSt7__cxx1112basic_stringIcSt11char_traitsIcESaIcEEES5_St9_IdentityIS5_ESt4lessIS5_ESaIS5_EE11equal_rangeERKS5_@Qt_6 6.6.0
 (optional=templinst)_ZNSt8_Rb_treeINSt7__cxx1112basic_stringIcSt11char_traitsIcESaIcEEES5_St9_IdentityIS5_ESt4lessIS5_ESaIS5_EE16_M_assign_uniqueIPKS5_EEvT_SF_@Qt_6 6.6.0
 (optional=templinst)_ZNSt8_Rb_treeINSt7__cxx1112basic_stringIcSt11char_traitsIcESaIcEEES5_St9_IdentityIS5_ESt4lessIS5_ESaIS5_EE16_M_insert_uniqueIRKS5_EESt4pairISt17_Rb_tree_iteratorIS5_EbEOT_@Qt_6 6.6.0
 (optional=templinst)_ZNSt8_Rb_treeINSt7__cxx1112basic_stringIcSt11char_traitsIcESaIcEEES5_St9_IdentityIS5_ESt4lessIS5_ESaIS5_EE16_M_insert_uniqueIS5_EESt4pairISt17_Rb_tree_iteratorIS5_EbEOT_@Qt_6 6.6.0
 (optional=templinst)_ZNSt8_Rb_treeINSt7__cxx1112basic_stringIcSt11char_traitsIcESaIcEEES5_St9_IdentityIS5_ESt4lessIS5_ESaIS5_EE17_M_emplace_uniqueIJRKS5_EEESt4pairISt17_Rb_tree_iteratorIS5_EbEDpOT_@Qt_6 6.6.0
 (optional=templinst)_ZNSt8_Rb_treeINSt7__cxx1112basic_stringIcSt11char_traitsIcESaIcEEES5_St9_IdentityIS5_ESt4lessIS5_ESaIS5_EE17_M_emplace_uniqueIJRPcEEESt4pairISt17_Rb_tree_iteratorIS5_EbEDpOT_@Qt_6 6.6.0
 (optional=templinst)_ZNSt8_Rb_treeINSt7__cxx1112basic_stringIcSt11char_traitsIcESaIcEEES5_St9_IdentityIS5_ESt4lessIS5_ESaIS5_EE17_M_emplace_uniqueIJS5_EEESt4pairISt17_Rb_tree_iteratorIS5_EbEDpOT_@Qt_6 6.6.0
 (optional=templinst)_ZNSt8_Rb_treeINSt7__cxx1112basic_stringIcSt11char_traitsIcESaIcEEES5_St9_IdentityIS5_ESt4lessIS5_ESaIS5_EE24_M_get_insert_unique_posERKS5_@Qt_6 6.6.0
 (optional=templinst)_ZNSt8_Rb_treeINSt7__cxx1112basic_stringIcSt11char_traitsIcESaIcEEES5_St9_IdentityIS5_ESt4lessIS5_ESaIS5_EE29_M_get_insert_hint_unique_posESt23_Rb_tree_const_iteratorIS5_ERKS5_@Qt_6 6.6.0
 (optional=templinst)_ZNSt8_Rb_treeINSt7__cxx1112basic_stringIcSt11char_traitsIcESaIcEEES5_St9_IdentityIS5_ESt4lessIS5_ESaIS5_EE4findERKS5_@Qt_6 6.6.0
 (optional=templinst)_ZNSt8_Rb_treeINSt7__cxx1112basic_stringIcSt11char_traitsIcESaIcEEES5_St9_IdentityIS5_ESt4lessIS5_ESaIS5_EE4swapERSB_@Qt_6 6.6.0
 (optional=templinst)_ZNSt8_Rb_treeINSt7__cxx1112basic_stringIcSt11char_traitsIcESaIcEEES5_St9_IdentityIS5_ESt4lessIS5_ESaIS5_EE5eraseERKS5_@Qt_6 6.6.0
 (optional=templinst)_ZNSt8_Rb_treeINSt7__cxx1112basic_stringIcSt11char_traitsIcESaIcEEESt4pairIKS5_N10extensions13RulesRegistry24ProcessChangedRulesStateEESt10_Select1stISB_ESt4lessIS5_ESaISB_EE22_M_emplace_hint_uniqueIJS6_IS5_SA_EEEESt17_Rb_tree_iteratorISB_ESt23_Rb_tree_const_iteratorISB_EDpOT_@Qt_6 6.6.0
 (optional=templinst)_ZNSt8_Rb_treeINSt7__cxx1112basic_stringIcSt11char_traitsIcESaIcEEESt4pairIKS5_N10extensions13RulesRegistry24ProcessChangedRulesStateEESt10_Select1stISB_ESt4lessIS5_ESaISB_EE24_M_get_insert_unique_posERS7_@Qt_6 6.6.0
 (optional=templinst)_ZNSt8_Rb_treeINSt7__cxx1112basic_stringIcSt11char_traitsIcESaIcEEESt4pairIKS5_N10extensions13RulesRegistry24ProcessChangedRulesStateEESt10_Select1stISB_ESt4lessIS5_ESaISB_EE29_M_get_insert_hint_unique_posESt23_Rb_tree_const_iteratorISB_ERS7_@Qt_6 6.6.0
 (optional=templinst)_ZNSt8_Rb_treeINSt7__cxx1112basic_stringIcSt11char_traitsIcESaIcEEESt4pairIKS5_N10extensions3api5power5LevelEESt10_Select1stISC_ESt4lessIS5_ESaISC_EE11equal_rangeERS7_@Qt_6 6.6.0
 (optional=templinst)_ZNSt8_Rb_treeINSt7__cxx1112basic_stringIcSt11char_traitsIcESaIcEEESt4pairIKS5_N10extensions3api5power5LevelEESt10_Select1stISC_ESt4lessIS5_ESaISC_EE24_M_get_insert_unique_posERS7_@Qt_6 6.6.0
 (optional=templinst)_ZNSt8_Rb_treeINSt7__cxx1112basic_stringIcSt11char_traitsIcESaIcEEESt4pairIKS5_N10extensions3api5power5LevelEESt10_Select1stISC_ESt4lessIS5_ESaISC_EE29_M_get_insert_hint_unique_posESt23_Rb_tree_const_iteratorISC_ERS7_@Qt_6 6.6.0
 (optional=templinst)_ZNSt8_Rb_treeINSt7__cxx1112basic_stringIcSt11char_traitsIcESaIcEEESt4pairIKS5_N10extensions6events14HistogramValueEESt10_Select1stISB_ESt4lessIS5_ESaISB_EE24_M_get_insert_unique_posERS7_@Qt_6 6.6.0
 (optional=templinst)_ZNSt8_Rb_treeINSt7__cxx1112basic_stringIcSt11char_traitsIcESaIcEEESt4pairIKS5_N10extensions6events14HistogramValueEESt10_Select1stISB_ESt4lessIS5_ESaISB_EE29_M_get_insert_hint_unique_posESt23_Rb_tree_const_iteratorISB_ERS7_@Qt_6 6.6.0
 (optional=templinst)_ZNSt8_Rb_treeINSt7__cxx1112basic_stringIcSt11char_traitsIcESaIcEEESt4pairIKS5_N16image_annotation17DescFailureReasonEESt10_Select1stISA_ESt4lessIS5_ESaISA_EE24_M_get_insert_unique_posERS7_@Qt_6 6.6.0
 (optional=templinst)_ZNSt8_Rb_treeINSt7__cxx1112basic_stringIcSt11char_traitsIcESaIcEEESt4pairIKS5_N16image_annotation17DescFailureReasonEESt10_Select1stISA_ESt4lessIS5_ESaISA_EE29_M_get_insert_hint_unique_posESt23_Rb_tree_const_iteratorISA_ERS7_@Qt_6 6.6.0
 (optional=templinst)_ZNSt8_Rb_treeINSt7__cxx1112basic_stringIcSt11char_traitsIcESaIcEEESt4pairIKS5_N16image_annotation5mojom14AnnotationTypeEESt10_Select1stISB_ESt4lessIS5_ESaISB_EE24_M_get_insert_unique_posERS7_@Qt_6 6.6.0
 (optional=templinst)_ZNSt8_Rb_treeINSt7__cxx1112basic_stringIcSt11char_traitsIcESaIcEEESt4pairIKS5_N16image_annotation5mojom14AnnotationTypeEESt10_Select1stISB_ESt4lessIS5_ESaISB_EE29_M_get_insert_hint_unique_posESt23_Rb_tree_const_iteratorISB_ERS7_@Qt_6 6.6.0
 (optional=templinst)_ZNSt8_Rb_treeINSt7__cxx1112basic_stringIcSt11char_traitsIcESaIcEEESt4pairIKS5_N2ax5mojom12IntAttributeEESt10_Select1stISB_ESt4lessIS5_ESaISB_EE24_M_get_insert_unique_posERS7_@Qt_6 6.6.0
 (optional=templinst)_ZNSt8_Rb_treeINSt7__cxx1112basic_stringIcSt11char_traitsIcESaIcEEESt4pairIKS5_N2ax5mojom12IntAttributeEESt10_Select1stISB_ESt4lessIS5_ESaISB_EE29_M_get_insert_hint_unique_posESt23_Rb_tree_const_iteratorISB_ERS7_@Qt_6 6.6.0
 (optional=templinst)_ZNSt8_Rb_treeINSt7__cxx1112basic_stringIcSt11char_traitsIcESaIcEEESt4pairIKS5_N2ax5mojom13BoolAttributeEESt10_Select1stISB_ESt4lessIS5_ESaISB_EE24_M_get_insert_unique_posERS7_@Qt_6 6.6.0
 (optional=templinst)_ZNSt8_Rb_treeINSt7__cxx1112basic_stringIcSt11char_traitsIcESaIcEEESt4pairIKS5_N2ax5mojom13BoolAttributeEESt10_Select1stISB_ESt4lessIS5_ESaISB_EE29_M_get_insert_hint_unique_posESt23_Rb_tree_const_iteratorISB_ERS7_@Qt_6 6.6.0
 (optional=templinst)_ZNSt8_Rb_treeINSt7__cxx1112basic_stringIcSt11char_traitsIcESaIcEEESt4pairIKS5_N2ax5mojom14FloatAttributeEESt10_Select1stISB_ESt4lessIS5_ESaISB_EE24_M_get_insert_unique_posERS7_@Qt_6 6.6.0
 (optional=templinst)_ZNSt8_Rb_treeINSt7__cxx1112basic_stringIcSt11char_traitsIcESaIcEEESt4pairIKS5_N2ax5mojom14FloatAttributeEESt10_Select1stISB_ESt4lessIS5_ESaISB_EE29_M_get_insert_hint_unique_posESt23_Rb_tree_const_iteratorISB_ERS7_@Qt_6 6.6.0
 (optional=templinst)_ZNSt8_Rb_treeINSt7__cxx1112basic_stringIcSt11char_traitsIcESaIcEEESt4pairIKS5_N2ax5mojom15StringAttributeEESt10_Select1stISB_ESt4lessIS5_ESaISB_EE24_M_get_insert_unique_posERS7_@Qt_6 6.6.0
 (optional=templinst)_ZNSt8_Rb_treeINSt7__cxx1112basic_stringIcSt11char_traitsIcESaIcEEESt4pairIKS5_N2ax5mojom15StringAttributeEESt10_Select1stISB_ESt4lessIS5_ESaISB_EE29_M_get_insert_hint_unique_posESt23_Rb_tree_const_iteratorISB_ERS7_@Qt_6 6.6.0
 (optional=templinst)_ZNSt8_Rb_treeINSt7__cxx1112basic_stringIcSt11char_traitsIcESaIcEEESt4pairIKS5_N2ax5mojom16IntListAttributeEESt10_Select1stISB_ESt4lessIS5_ESaISB_EE24_M_get_insert_unique_posERS7_@Qt_6 6.6.0
 (optional=templinst)_ZNSt8_Rb_treeINSt7__cxx1112basic_stringIcSt11char_traitsIcESaIcEEESt4pairIKS5_N2ax5mojom16IntListAttributeEESt10_Select1stISB_ESt4lessIS5_ESaISB_EE29_M_get_insert_hint_unique_posESt23_Rb_tree_const_iteratorISB_ERS7_@Qt_6 6.6.0
 (optional=templinst)_ZNSt8_Rb_treeINSt7__cxx1112basic_stringIcSt11char_traitsIcESaIcEEESt4pairIKS5_N2ax5mojom5EventEESt10_Select1stISB_ESt4lessIS5_ESaISB_EE24_M_get_insert_unique_posERS7_@Qt_6 6.6.0
 (optional=templinst)_ZNSt8_Rb_treeINSt7__cxx1112basic_stringIcSt11char_traitsIcESaIcEEESt4pairIKS5_N2ax5mojom5EventEESt10_Select1stISB_ESt4lessIS5_ESaISB_EE29_M_get_insert_hint_unique_posESt23_Rb_tree_const_iteratorISB_ERS7_@Qt_6 6.6.0
 (optional=templinst)_ZNSt8_Rb_treeINSt7__cxx1112basic_stringIcSt11char_traitsIcESaIcEEESt4pairIKS5_N2ui16AXEventGenerator5EventEESt10_Select1stISB_ESt4lessIS5_ESaISB_EE24_M_get_insert_unique_posERS7_@Qt_6 6.6.0
 (optional=templinst)_ZNSt8_Rb_treeINSt7__cxx1112basic_stringIcSt11char_traitsIcESaIcEEESt4pairIKS5_N2ui16AXEventGenerator5EventEESt10_Select1stISB_ESt4lessIS5_ESaISB_EE29_M_get_insert_hint_unique_posESt23_Rb_tree_const_iteratorISB_ERS7_@Qt_6 6.6.0
 (optional=templinst)_ZNSt8_Rb_treeINSt7__cxx1112basic_stringIcSt11char_traitsIcESaIcEEESt4pairIKS5_N3x114AtomEESt10_Select1stISA_ESt4lessIS5_ESaISA_EE22_M_emplace_hint_uniqueIJRS7_RS9_EEESt17_Rb_tree_iteratorISA_ESt23_Rb_tree_const_iteratorISA_EDpOT_@Qt_6 6.6.0
 (optional=templinst)_ZNSt8_Rb_treeINSt7__cxx1112basic_stringIcSt11char_traitsIcESaIcEEESt4pairIKS5_N3x114AtomEESt10_Select1stISA_ESt4lessIS5_ESaISA_EE24_M_get_insert_unique_posERS7_@Qt_6 6.6.0
 (optional=templinst)_ZNSt8_Rb_treeINSt7__cxx1112basic_stringIcSt11char_traitsIcESaIcEEESt4pairIKS5_N3x114AtomEESt10_Select1stISA_ESt4lessIS5_ESaISA_EE29_M_get_insert_hint_unique_posESt23_Rb_tree_const_iteratorISA_ERS7_@Qt_6 6.6.0
 (optional=templinst)_ZNSt8_Rb_treeINSt7__cxx1112basic_stringIcSt11char_traitsIcESaIcEEESt4pairIKS5_N5blink9scheduler26WebSchedulerTrackedFeatureEESt10_Select1stISB_ESt4lessIS5_ESaISB_EE24_M_get_insert_unique_posERS7_@Qt_6 6.6.0
 (optional=templinst)_ZNSt8_Rb_treeINSt7__cxx1112basic_stringIcSt11char_traitsIcESaIcEEESt4pairIKS5_N5blink9scheduler26WebSchedulerTrackedFeatureEESt10_Select1stISB_ESt4lessIS5_ESaISB_EE29_M_get_insert_hint_unique_posESt23_Rb_tree_const_iteratorISB_ERS7_@Qt_6 6.6.0
 (optional=templinst)_ZNSt8_Rb_treeINSt7__cxx1112basic_stringIcSt11char_traitsIcESaIcEEESt4pairIKS5_N5media14CdmSessionTypeEESt10_Select1stISA_ESt4lessIS5_ESaISA_EE22_M_emplace_hint_uniqueIJRS7_RS9_EEESt17_Rb_tree_iteratorISA_ESt23_Rb_tree_const_iteratorISA_EDpOT_@Qt_6 6.6.0
 (optional=templinst)_ZNSt8_Rb_treeINSt7__cxx1112basic_stringIcSt11char_traitsIcESaIcEEESt4pairIKS5_N5media14CdmSessionTypeEESt10_Select1stISA_ESt4lessIS5_ESaISA_EE24_M_get_insert_unique_posERS7_@Qt_6 6.6.0
 (optional=templinst)_ZNSt8_Rb_treeINSt7__cxx1112basic_stringIcSt11char_traitsIcESaIcEEESt4pairIKS5_N5media14CdmSessionTypeEESt10_Select1stISA_ESt4lessIS5_ESaISA_EE29_M_get_insert_hint_unique_posESt23_Rb_tree_const_iteratorISA_ERS7_@Qt_6 6.6.0
 (optional=templinst)_ZNSt8_Rb_treeINSt7__cxx1112basic_stringIcSt11char_traitsIcESaIcEEESt4pairIKS5_N5media14CdmSessionTypeEESt10_Select1stISA_ESt4lessIS5_ESaISA_EE4findERS7_@Qt_6 6.6.0
 (optional=templinst)_ZNSt8_Rb_treeINSt7__cxx1112basic_stringIcSt11char_traitsIcESaIcEEESt4pairIKS5_N6webrtc18InterLayerPredModeEESt10_Select1stISA_ESt4lessIS5_ESaISA_EE24_M_get_insert_unique_posERS7_@Qt_6 6.6.0
 (optional=templinst)_ZNSt8_Rb_treeINSt7__cxx1112basic_stringIcSt11char_traitsIcESaIcEEESt4pairIKS5_N6webrtc18InterLayerPredModeEESt10_Select1stISA_ESt4lessIS5_ESaISA_EE29_M_get_insert_hint_unique_posESt23_Rb_tree_const_iteratorISA_ERS7_@Qt_6 6.6.0
 (optional=templinst)_ZNSt8_Rb_treeINSt7__cxx1112basic_stringIcSt11char_traitsIcESaIcEEESt4pairIKS5_N7content23BackForwardCacheMetrics17NotRestoredReasonEESt10_Select1stISB_ESt4lessIS5_ESaISB_EE11equal_rangeERS7_@Qt_6 6.6.0
 (optional=templinst)_ZNSt8_Rb_treeINSt7__cxx1112basic_stringIcSt11char_traitsIcESaIcEEESt4pairIKS5_N7content23BackForwardCacheMetrics17NotRestoredReasonEESt10_Select1stISB_ESt4lessIS5_ESaISB_EE24_M_get_insert_unique_posERS7_@Qt_6 6.6.0
 (optional=templinst)_ZNSt8_Rb_treeINSt7__cxx1112basic_stringIcSt11char_traitsIcESaIcEEESt4pairIKS5_N7content23BackForwardCacheMetrics17NotRestoredReasonEESt10_Select1stISB_ESt4lessIS5_ESaISB_EE29_M_get_insert_hint_unique_posESt23_Rb_tree_const_iteratorISB_ERS7_@Qt_6 6.6.0
 (optional=templinst)_ZNSt8_Rb_treeINSt7__cxx1112basic_stringIcSt11char_traitsIcESaIcEEESt4pairIKS5_N7content30ChildProcessSecurityPolicyImpl13SecurityState19CommitRequestPolicyEESt10_Select1stISC_ESt4lessIS5_ESaISC_EE22_M_emplace_hint_uniqueIJRS7_SB_EEESt17_Rb_tree_iteratorISC_ESt23_Rb_tree_const_iteratorISC_EDpOT_@Qt_6 6.6.0
 (optional=templinst)_ZNSt8_Rb_treeINSt7__cxx1112basic_stringIcSt11char_traitsIcESaIcEEESt4pairIKS5_N7content30ChildProcessSecurityPolicyImpl13SecurityState19CommitRequestPolicyEESt10_Select1stISC_ESt4lessIS5_ESaISC_EE24_M_get_insert_unique_posERS7_@Qt_6 6.6.0
 (optional=templinst)_ZNSt8_Rb_treeINSt7__cxx1112basic_stringIcSt11char_traitsIcESaIcEEESt4pairIKS5_N7content30ChildProcessSecurityPolicyImpl13SecurityState19CommitRequestPolicyEESt10_Select1stISC_ESt4lessIS5_ESaISC_EE29_M_get_insert_hint_unique_posESt23_Rb_tree_const_iteratorISC_ERS7_@Qt_6 6.6.0
 (optional=templinst)_ZNSt8_Rb_treeINSt7__cxx1112basic_stringIcSt11char_traitsIcESaIcEEESt4pairIKS5_N7content30ChildProcessSecurityPolicyImpl13SecurityState19CommitRequestPolicyEESt10_Select1stISC_ESt4lessIS5_ESaISC_EE4findERS7_@Qt_6 6.6.0
 (optional=templinst)_ZNSt8_Rb_treeINSt7__cxx1112basic_stringIcSt11char_traitsIcESaIcEEESt4pairIKS5_N7content39ServiceWorkerExternalRequestTimeoutTypeEESt10_Select1stISA_ESt4lessIS5_ESaISA_EE16_M_insert_uniqueISA_EES6_ISt17_Rb_tree_iteratorISA_EbEOT_@Qt_6 6.6.0
 (optional=templinst)_ZNSt8_Rb_treeINSt7__cxx1112basic_stringIcSt11char_traitsIcESaIcEEESt4pairIKS5_N8download15DownloadContentEESt10_Select1stISA_ESt4lessIS5_ESaISA_EE24_M_get_insert_unique_posERS7_@Qt_6 6.6.0
 (optional=templinst)_ZNSt8_Rb_treeINSt7__cxx1112basic_stringIcSt11char_traitsIcESaIcEEESt4pairIKS5_N8download15DownloadContentEESt10_Select1stISA_ESt4lessIS5_ESaISA_EE29_M_get_insert_hint_unique_posESt23_Rb_tree_const_iteratorISA_ERS7_@Qt_6 6.6.0
 (optional=templinst)_ZNSt8_Rb_treeINSt7__cxx1112basic_stringIcSt11char_traitsIcESaIcEEESt4pairIKS5_NS1_IDsS2_IDsESaIDsEEEESt10_Select1stISB_ESt4lessIS5_ESaISB_EE11equal_rangeERS7_@Qt_6 6.6.0
 (optional=templinst)_ZNSt8_Rb_treeINSt7__cxx1112basic_stringIcSt11char_traitsIcESaIcEEESt4pairIKS5_NS1_IDsS2_IDsESaIDsEEEESt10_Select1stISB_ESt4lessIS5_ESaISB_EE22_M_emplace_hint_uniqueIJS6_IS5_SA_EEEESt17_Rb_tree_iteratorISB_ESt23_Rb_tree_const_iteratorISB_EDpOT_@Qt_6 6.6.0
 (optional=templinst)_ZNSt8_Rb_treeINSt7__cxx1112basic_stringIcSt11char_traitsIcESaIcEEESt4pairIKS5_NS1_IDsS2_IDsESaIDsEEEESt10_Select1stISB_ESt4lessIS5_ESaISB_EE24_M_get_insert_unique_posERS7_@Qt_6 6.6.0
 (optional=templinst)_ZNSt8_Rb_treeINSt7__cxx1112basic_stringIcSt11char_traitsIcESaIcEEESt4pairIKS5_NS1_IDsS2_IDsESaIDsEEEESt10_Select1stISB_ESt4lessIS5_ESaISB_EE29_M_get_insert_hint_unique_posESt23_Rb_tree_const_iteratorISB_ERS7_@Qt_6 6.6.0
 (optional=templinst)_ZNSt8_Rb_treeINSt7__cxx1112basic_stringIcSt11char_traitsIcESaIcEEESt4pairIKS5_PS5_ESt10_Select1stIS9_ESt4lessIS5_ESaIS9_EE24_M_get_insert_unique_posERS7_@Qt_6 6.6.0
 (optional=templinst)_ZNSt8_Rb_treeINSt7__cxx1112basic_stringIcSt11char_traitsIcESaIcEEESt4pairIKS5_PS5_ESt10_Select1stIS9_ESt4lessIS5_ESaIS9_EE29_M_get_insert_hint_unique_posESt23_Rb_tree_const_iteratorIS9_ERS7_@Qt_6 6.6.0
 (optional=templinst)_ZNSt8_Rb_treeINSt7__cxx1112basic_stringIcSt11char_traitsIcESaIcEEESt4pairIKS5_S5_ESt10_Select1stIS8_ESt4lessIS5_ESaIS8_EE10_M_insert_IRKS8_NSE_20_Reuse_or_alloc_nodeEEESt17_Rb_tree_iteratorIS8_EPSt18_Rb_tree_node_baseSM_OT_RT0_@Qt_6 6.6.0
 (optional=templinst)_ZNSt8_Rb_treeINSt7__cxx1112basic_stringIcSt11char_traitsIcESaIcEEESt4pairIKS5_S5_ESt10_Select1stIS8_ESt4lessIS5_ESaIS8_EE11equal_rangeERS7_@Qt_6 6.6.0
 (optional=templinst)_ZNSt8_Rb_treeINSt7__cxx1112basic_stringIcSt11char_traitsIcESaIcEEESt4pairIKS5_S5_ESt10_Select1stIS8_ESt4lessIS5_ESaIS8_EE16_M_assign_uniqueIPKS8_EEvT_SI_@Qt_6 6.6.0
 (optional=templinst)_ZNSt8_Rb_treeINSt7__cxx1112basic_stringIcSt11char_traitsIcESaIcEEESt4pairIKS5_S5_ESt10_Select1stIS8_ESt4lessIS5_ESaIS8_EE16_M_emplace_equalIJS6_IS5_S5_EEEESt17_Rb_tree_iteratorIS8_EDpOT_@Qt_6 6.6.0
 (optional=templinst)_ZNSt8_Rb_treeINSt7__cxx1112basic_stringIcSt11char_traitsIcESaIcEEESt4pairIKS5_S5_ESt10_Select1stIS8_ESt4lessIS5_ESaIS8_EE17_M_emplace_uniqueIJRA15_KcS5_EEES6_ISt17_Rb_tree_iteratorIS8_EbEDpOT_@Qt_6 6.6.0
 (optional=templinst)_ZNSt8_Rb_treeINSt7__cxx1112basic_stringIcSt11char_traitsIcESaIcEEESt4pairIKS5_S5_ESt10_Select1stIS8_ESt4lessIS5_ESaIS8_EE17_M_emplace_uniqueIJRA1_KcS5_EEES6_ISt17_Rb_tree_iteratorIS8_EbEDpOT_@Qt_6 6.6.0
 (optional=templinst)_ZNSt8_Rb_treeINSt7__cxx1112basic_stringIcSt11char_traitsIcESaIcEEESt4pairIKS5_S5_ESt10_Select1stIS8_ESt4lessIS5_ESaIS8_EE22_M_emplace_hint_uniqueIJRS7_SG_EEESt17_Rb_tree_iteratorIS8_ESt23_Rb_tree_const_iteratorIS8_EDpOT_@Qt_6 6.6.0
 (optional=templinst)_ZNSt8_Rb_treeINSt7__cxx1112basic_stringIcSt11char_traitsIcESaIcEEESt4pairIKS5_S5_ESt10_Select1stIS8_ESt4lessIS5_ESaIS8_EE22_M_emplace_hint_uniqueIJS5_RS7_EEESt17_Rb_tree_iteratorIS8_ESt23_Rb_tree_const_iteratorIS8_EDpOT_@Qt_6 6.6.0
 (optional=templinst)_ZNSt8_Rb_treeINSt7__cxx1112basic_stringIcSt11char_traitsIcESaIcEEESt4pairIKS5_S5_ESt10_Select1stIS8_ESt4lessIS5_ESaIS8_EE22_M_emplace_hint_uniqueIJS5_S5_EEESt17_Rb_tree_iteratorIS8_ESt23_Rb_tree_const_iteratorIS8_EDpOT_@Qt_6 6.6.0
 (optional=templinst)_ZNSt8_Rb_treeINSt7__cxx1112basic_stringIcSt11char_traitsIcESaIcEEESt4pairIKS5_S5_ESt10_Select1stIS8_ESt4lessIS5_ESaIS8_EE22_M_emplace_hint_uniqueIJS6_IS5_S5_EEEESt17_Rb_tree_iteratorIS8_ESt23_Rb_tree_const_iteratorIS8_EDpOT_@Qt_6 6.6.0
 (optional=templinst)_ZNSt8_Rb_treeINSt7__cxx1112basic_stringIcSt11char_traitsIcESaIcEEESt4pairIKS5_S5_ESt10_Select1stIS8_ESt4lessIS5_ESaIS8_EE23_M_get_insert_equal_posERS7_@Qt_6 6.6.0
 (optional=templinst)_ZNSt8_Rb_treeINSt7__cxx1112basic_stringIcSt11char_traitsIcESaIcEEESt4pairIKS5_S5_ESt10_Select1stIS8_ESt4lessIS5_ESaIS8_EE24_M_get_insert_unique_posERS7_@Qt_6 6.6.0
 (optional=templinst)_ZNSt8_Rb_treeINSt7__cxx1112basic_stringIcSt11char_traitsIcESaIcEEESt4pairIKS5_S5_ESt10_Select1stIS8_ESt4lessIS5_ESaIS8_EE29_M_get_insert_hint_unique_posESt23_Rb_tree_const_iteratorIS8_ERS7_@Qt_6 6.6.0
 (optional=templinst)_ZNSt8_Rb_treeINSt7__cxx1112basic_stringIcSt11char_traitsIcESaIcEEESt4pairIKS5_S5_ESt10_Select1stIS8_ESt4lessIS5_ESaIS8_EE4findERS7_@Qt_6 6.6.0
 (optional=templinst)_ZNSt8_Rb_treeINSt7__cxx1112basic_stringIcSt11char_traitsIcESaIcEEESt4pairIKS5_S5_ESt10_Select1stIS8_ESt4lessIvESaIS8_EE24_M_get_insert_unique_posERS7_@Qt_6 6.6.0
 (optional=templinst)_ZNSt8_Rb_treeINSt7__cxx1112basic_stringIcSt11char_traitsIcESaIcEEESt4pairIKS5_S5_ESt10_Select1stIS8_ESt4lessIvESaIS8_EE29_M_get_insert_hint_unique_posESt23_Rb_tree_const_iteratorIS8_ERS7_@Qt_6 6.6.0
 (optional=templinst)_ZNSt8_Rb_treeINSt7__cxx1112basic_stringIcSt11char_traitsIcESaIcEEESt4pairIKS5_S6_IS5_S5_EESt10_Select1stIS9_ESt4lessIS5_ESaIS9_EE11equal_rangeERS7_@Qt_6 6.6.0
 (optional=templinst)_ZNSt8_Rb_treeINSt7__cxx1112basic_stringIcSt11char_traitsIcESaIcEEESt4pairIKS5_S6_IS5_S5_EESt10_Select1stIS9_ESt4lessIS5_ESaIS9_EE24_M_get_insert_unique_posERS7_@Qt_6 6.6.0
 (optional=templinst)_ZNSt8_Rb_treeINSt7__cxx1112basic_stringIcSt11char_traitsIcESaIcEEESt4pairIKS5_S6_IS5_S5_EESt10_Select1stIS9_ESt4lessIS5_ESaIS9_EE29_M_get_insert_hint_unique_posESt23_Rb_tree_const_iteratorIS9_ERS7_@Qt_6 6.6.0
 (optional=templinst)_ZNSt8_Rb_treeINSt7__cxx1112basic_stringIcSt11char_traitsIcESaIcEEESt4pairIKS5_S6_IS5_S5_EESt10_Select1stIS9_ESt4lessIS5_ESaIS9_EE4findERS7_@Qt_6 6.6.0
 (optional=templinst)_ZNSt8_Rb_treeINSt7__cxx1112basic_stringIcSt11char_traitsIcESaIcEEESt4pairIKS5_S6_IiiEESt10_Select1stIS9_ESt4lessIS5_ESaIS9_EE24_M_get_insert_unique_posERS7_@Qt_6 6.6.0
 (optional=templinst)_ZNSt8_Rb_treeINSt7__cxx1112basic_stringIcSt11char_traitsIcESaIcEEESt4pairIKS5_S6_IiiEESt10_Select1stIS9_ESt4lessIS5_ESaIS9_EE29_M_get_insert_hint_unique_posESt23_Rb_tree_const_iteratorIS9_ERS7_@Qt_6 6.6.0
 (optional=templinst)_ZNSt8_Rb_treeINSt7__cxx1112basic_stringIcSt11char_traitsIcESaIcEEESt4pairIKS5_S6_IiiEESt10_Select1stIS9_ESt4lessIS5_ESaIS9_EE4findERS7_@Qt_6 6.6.0
 (optional=templinst)_ZNSt8_Rb_treeINSt7__cxx1112basic_stringIcSt11char_traitsIcESaIcEEESt4pairIKS5_S6_IjjEESt10_Select1stIS9_ESt4lessIS5_ESaIS9_EE24_M_get_insert_unique_posERS7_@Qt_6 6.6.0
 (optional=templinst)_ZNSt8_Rb_treeINSt7__cxx1112basic_stringIcSt11char_traitsIcESaIcEEESt4pairIKS5_S6_IjjEESt10_Select1stIS9_ESt4lessIS5_ESaIS9_EE29_M_get_insert_hint_unique_posESt23_Rb_tree_const_iteratorIS9_ERS7_@Qt_6 6.6.0
 (optional=templinst)_ZNSt8_Rb_treeINSt7__cxx1112basic_stringIcSt11char_traitsIcESaIcEEESt4pairIKS5_S6_ImmEESt10_Select1stIS9_ESt4lessIS5_ESaIS9_EE22_M_emplace_hint_uniqueIJRKSt21piecewise_construct_tSt5tupleIJRS7_EESK_IJEEEEESt17_Rb_tree_iteratorIS9_ESt23_Rb_tree_const_iteratorIS9_EDpOT_@Qt_6 6.6.0
 (optional=templinst)_ZNSt8_Rb_treeINSt7__cxx1112basic_stringIcSt11char_traitsIcESaIcEEESt4pairIKS5_S6_ImmEESt10_Select1stIS9_ESt4lessIS5_ESaIS9_EE22_M_emplace_hint_uniqueIJS6_IS5_S8_EEEESt17_Rb_tree_iteratorIS9_ESt23_Rb_tree_const_iteratorIS9_EDpOT_@Qt_6 6.6.0
 (optional=templinst)_ZNSt8_Rb_treeINSt7__cxx1112basic_stringIcSt11char_traitsIcESaIcEEESt4pairIKS5_S6_ImmEESt10_Select1stIS9_ESt4lessIS5_ESaIS9_EE24_M_get_insert_unique_posERS7_@Qt_6 6.6.0
 (optional=templinst)_ZNSt8_Rb_treeINSt7__cxx1112basic_stringIcSt11char_traitsIcESaIcEEESt4pairIKS5_S6_ImmEESt10_Select1stIS9_ESt4lessIS5_ESaIS9_EE29_M_get_insert_hint_unique_posESt23_Rb_tree_const_iteratorIS9_ERS7_@Qt_6 6.6.0
 (optional=templinst)_ZNSt8_Rb_treeINSt7__cxx1112basic_stringIcSt11char_traitsIcESaIcEEESt4pairIKS5_St13unordered_setIiSt4hashIiESt8equal_toIiESaIiEEESt10_Select1stISF_ESt4lessIS5_ESaISF_EE11equal_rangeERS7_@Qt_6 6.6.0
 (optional=templinst)_ZNSt8_Rb_treeINSt7__cxx1112basic_stringIcSt11char_traitsIcESaIcEEESt4pairIKS5_St13unordered_setIiSt4hashIiESt8equal_toIiESaIiEEESt10_Select1stISF_ESt4lessIS5_ESaISF_EE12_M_erase_auxESt23_Rb_tree_const_iteratorISF_ESN_@Qt_6 6.6.0
 (optional=templinst)_ZNSt8_Rb_treeINSt7__cxx1112basic_stringIcSt11char_traitsIcESaIcEEESt4pairIKS5_St13unordered_setIiSt4hashIiESt8equal_toIiESaIiEEESt10_Select1stISF_ESt4lessIS5_ESaISF_EE22_M_emplace_hint_uniqueIJS6_IS5_SE_EEEESt17_Rb_tree_iteratorISF_ESt23_Rb_tree_const_iteratorISF_EDpOT_@Qt_6 6.6.0
 (optional=templinst)_ZNSt8_Rb_treeINSt7__cxx1112basic_stringIcSt11char_traitsIcESaIcEEESt4pairIKS5_St13unordered_setIiSt4hashIiESt8equal_toIiESaIiEEESt10_Select1stISF_ESt4lessIS5_ESaISF_EE24_M_get_insert_unique_posERS7_@Qt_6 6.6.0
 (optional=templinst)_ZNSt8_Rb_treeINSt7__cxx1112basic_stringIcSt11char_traitsIcESaIcEEESt4pairIKS5_St13unordered_setIiSt4hashIiESt8equal_toIiESaIiEEESt10_Select1stISF_ESt4lessIS5_ESaISF_EE29_M_get_insert_hint_unique_posESt23_Rb_tree_const_iteratorISF_ERS7_@Qt_6 6.6.0
 (optional=templinst)_ZNSt8_Rb_treeINSt7__cxx1112basic_stringIcSt11char_traitsIcESaIcEEESt4pairIKS5_St13unordered_setIiSt4hashIiESt8equal_toIiESaIiEEESt10_Select1stISF_ESt4lessIS5_ESaISF_EE4findERS7_@Qt_6 6.6.0
 (optional=templinst)_ZNSt8_Rb_treeINSt7__cxx1112basic_stringIcSt11char_traitsIcESaIcEEESt4pairIKS5_St13unordered_setIiSt4hashIiESt8equal_toIiESaIiEEESt10_Select1stISF_ESt4lessIS5_ESaISF_EE4swapERSL_@Qt_6 6.6.0
 (optional=templinst)_ZNSt8_Rb_treeINSt7__cxx1112basic_stringIcSt11char_traitsIcESaIcEEESt4pairIKS5_St3mapINS1_IDsS2_IDsESaIDsEEES6_IilESt4lessISB_ESaIS6_IKSB_SC_EEEESt10_Select1stISJ_ESD_IS5_ESaISJ_EE24_M_get_insert_unique_posERS7_@Qt_6 6.6.0
 (optional=templinst)_ZNSt8_Rb_treeINSt7__cxx1112basic_stringIcSt11char_traitsIcESaIcEEESt4pairIKS5_St3mapINS1_IDsS2_IDsESaIDsEEES6_IilESt4lessISB_ESaIS6_IKSB_SC_EEEESt10_Select1stISJ_ESD_IS5_ESaISJ_EE29_M_get_insert_hint_unique_posESt23_Rb_tree_const_iteratorISJ_ERS7_@Qt_6 6.6.0
 (optional=templinst)_ZNSt8_Rb_treeINSt7__cxx1112basic_stringIcSt11char_traitsIcESaIcEEESt4pairIKS5_St3mapIS5_S5_St4lessIS5_ESaIS6_IS7_S5_EEEESt10_Select1stISE_ESA_SaISE_EE11equal_rangeERS7_@Qt_6 6.6.0
 (optional=templinst)_ZNSt8_Rb_treeINSt7__cxx1112basic_stringIcSt11char_traitsIcESaIcEEESt4pairIKS5_St3mapIS5_S5_St4lessIS5_ESaIS6_IS7_S5_EEEESt10_Select1stISE_ESA_SaISE_EE24_M_get_insert_unique_posERS7_@Qt_6 6.6.0
 (optional=templinst)_ZNSt8_Rb_treeINSt7__cxx1112basic_stringIcSt11char_traitsIcESaIcEEESt4pairIKS5_St3mapIS5_S5_St4lessIS5_ESaIS6_IS7_S5_EEEESt10_Select1stISE_ESA_SaISE_EE29_M_get_insert_hint_unique_posESt23_Rb_tree_const_iteratorISE_ERS7_@Qt_6 6.6.0
 (optional=templinst)_ZNSt8_Rb_treeINSt7__cxx1112basic_stringIcSt11char_traitsIcESaIcEEESt4pairIKS5_St3mapIS5_iSt4lessIS5_ESaIS6_IS7_iEEEESt10_Select1stISE_ESA_SaISE_EE24_M_get_insert_unique_posERS7_@Qt_6 6.6.0
 (optional=templinst)_ZNSt8_Rb_treeINSt7__cxx1112basic_stringIcSt11char_traitsIcESaIcEEESt4pairIKS5_St3mapIS5_iSt4lessIS5_ESaIS6_IS7_iEEEESt10_Select1stISE_ESA_SaISE_EE29_M_get_insert_hint_unique_posESt23_Rb_tree_const_iteratorISE_ERS7_@Qt_6 6.6.0
 (optional=templinst)_ZNSt8_Rb_treeINSt7__cxx1112basic_stringIcSt11char_traitsIcESaIcEEESt4pairIKS5_St3mapIS7_S5_St4lessIS7_ESaIS6_IS7_S5_EEEESt10_Select1stISE_ES9_IS5_ESaISE_EE24_M_get_insert_unique_posERS7_@Qt_6 6.6.0
 (optional=templinst)_ZNSt8_Rb_treeINSt7__cxx1112basic_stringIcSt11char_traitsIcESaIcEEESt4pairIKS5_St3mapIS7_S5_St4lessIS7_ESaIS6_IS7_S5_EEEESt10_Select1stISE_ES9_IS5_ESaISE_EE29_M_get_insert_hint_unique_posESt23_Rb_tree_const_iteratorISE_ERS7_@Qt_6 6.6.0
 (optional=templinst)_ZNSt8_Rb_treeINSt7__cxx1112basic_stringIcSt11char_traitsIcESaIcEEESt4pairIKS5_St3setIN7cricket9MediaTypeESt4lessISA_ESaISA_EEESt10_Select1stISF_ESB_IS5_ESaISF_EE24_M_get_insert_unique_posERS7_@Qt_6 6.6.0
 (optional=templinst)_ZNSt8_Rb_treeINSt7__cxx1112basic_stringIcSt11char_traitsIcESaIcEEESt4pairIKS5_St3setIN7cricket9MediaTypeESt4lessISA_ESaISA_EEESt10_Select1stISF_ESB_IS5_ESaISF_EE29_M_get_insert_hint_unique_posESt23_Rb_tree_const_iteratorISF_ERS7_@Qt_6 6.6.0
 (optional=templinst)_ZNSt8_Rb_treeINSt7__cxx1112basic_stringIcSt11char_traitsIcESaIcEEESt4pairIKS5_St3setINS1_IDsS2_IDsESaIDsEEESt4lessISB_ESaISB_EEESt10_Select1stISG_ESC_IS5_ESaISG_EE11equal_rangeERS7_@Qt_6 6.6.0
 (optional=templinst)_ZNSt8_Rb_treeINSt7__cxx1112basic_stringIcSt11char_traitsIcESaIcEEESt4pairIKS5_St3setINS1_IDsS2_IDsESaIDsEEESt4lessISB_ESaISB_EEESt10_Select1stISG_ESC_IS5_ESaISG_EE24_M_get_insert_unique_posERS7_@Qt_6 6.6.0
 (optional=templinst)_ZNSt8_Rb_treeINSt7__cxx1112basic_stringIcSt11char_traitsIcESaIcEEESt4pairIKS5_St3setINS1_IDsS2_IDsESaIDsEEESt4lessISB_ESaISB_EEESt10_Select1stISG_ESC_IS5_ESaISG_EE29_M_get_insert_hint_unique_posESt23_Rb_tree_const_iteratorISG_ERS7_@Qt_6 6.6.0
 (optional=templinst)_ZNSt8_Rb_treeINSt7__cxx1112basic_stringIcSt11char_traitsIcESaIcEEESt4pairIKS5_St3setINS1_IDsS2_IDsESaIDsEEESt4lessISB_ESaISB_EEESt10_Select1stISG_ESC_IS5_ESaISG_EE4findERS7_@Qt_6 6.6.0
 (optional=templinst)_ZNSt8_Rb_treeINSt7__cxx1112basic_stringIcSt11char_traitsIcESaIcEEESt4pairIKS5_St3setIS5_St4lessIS5_ESaIS5_EEESt10_Select1stISD_ESA_SaISD_EE11equal_rangeERS7_@Qt_6 6.6.0
 (optional=templinst)_ZNSt8_Rb_treeINSt7__cxx1112basic_stringIcSt11char_traitsIcESaIcEEESt4pairIKS5_St3setIS5_St4lessIS5_ESaIS5_EEESt10_Select1stISD_ESA_SaISD_EE24_M_get_insert_unique_posERS7_@Qt_6 6.6.0
 (optional=templinst)_ZNSt8_Rb_treeINSt7__cxx1112basic_stringIcSt11char_traitsIcESaIcEEESt4pairIKS5_St3setIS5_St4lessIS5_ESaIS5_EEESt10_Select1stISD_ESA_SaISD_EE29_M_get_insert_hint_unique_posESt23_Rb_tree_const_iteratorISD_ERS7_@Qt_6 6.6.0
 (optional=templinst)_ZNSt8_Rb_treeINSt7__cxx1112basic_stringIcSt11char_traitsIcESaIcEEESt4pairIKS5_St3setIiSt4lessIiESaIiEEESt10_Select1stISD_ES9_IS5_ESaISD_EE22_M_emplace_hint_uniqueIJS6_IS5_SC_EEEESt17_Rb_tree_iteratorISD_ESt23_Rb_tree_const_iteratorISD_EDpOT_@Qt_6 6.6.0
 (optional=templinst)_ZNSt8_Rb_treeINSt7__cxx1112basic_stringIcSt11char_traitsIcESaIcEEESt4pairIKS5_St3setIiSt4lessIiESaIiEEESt10_Select1stISD_ES9_IS5_ESaISD_EE24_M_get_insert_unique_posERS7_@Qt_6 6.6.0
 (optional=templinst)_ZNSt8_Rb_treeINSt7__cxx1112basic_stringIcSt11char_traitsIcESaIcEEESt4pairIKS5_St3setIiSt4lessIiESaIiEEESt10_Select1stISD_ES9_IS5_ESaISD_EE29_M_get_insert_hint_unique_posESt23_Rb_tree_const_iteratorISD_ERS7_@Qt_6 6.6.0
 (optional=templinst)_ZNSt8_Rb_treeINSt7__cxx1112basic_stringIcSt11char_traitsIcESaIcEEESt4pairIKS5_St6vectorIS5_SaIS5_EEESt10_Select1stISB_ESt4lessIS5_ESaISB_EE24_M_get_insert_unique_posERS7_@Qt_6 6.6.0
 (optional=templinst)_ZNSt8_Rb_treeINSt7__cxx1112basic_stringIcSt11char_traitsIcESaIcEEESt4pairIKS5_St6vectorIS5_SaIS5_EEESt10_Select1stISB_ESt4lessIS5_ESaISB_EE29_M_get_insert_hint_unique_posESt23_Rb_tree_const_iteratorISB_ERS7_@Qt_6 6.6.0
 (optional=templinst)_ZNSt8_Rb_treeINSt7__cxx1112basic_stringIcSt11char_traitsIcESaIcEEESt4pairIKS5_St6vectorIS6_IS5_S5_ESaIS9_EEESt10_Select1stISC_ESt4lessIS5_ESaISC_EE24_M_get_insert_unique_posERS7_@Qt_6 6.6.0
 (optional=templinst)_ZNSt8_Rb_treeINSt7__cxx1112basic_stringIcSt11char_traitsIcESaIcEEESt4pairIKS5_St6vectorIS6_IS5_S5_ESaIS9_EEESt10_Select1stISC_ESt4lessIS5_ESaISC_EE29_M_get_insert_hint_unique_posESt23_Rb_tree_const_iteratorISC_ERS7_@Qt_6 6.6.0
 (optional=templinst)_ZNSt8_Rb_treeINSt7__cxx1112basic_stringIcSt11char_traitsIcESaIcEEESt4pairIKS5_St6vectorIhSaIhEEESt10_Select1stISB_ESt4lessIS5_ESaISB_EE24_M_get_insert_unique_posERS7_@Qt_6 6.6.0
 (optional=templinst)_ZNSt8_Rb_treeINSt7__cxx1112basic_stringIcSt11char_traitsIcESaIcEEESt4pairIKS5_St6vectorIhSaIhEEESt10_Select1stISB_ESt4lessIS5_ESaISB_EE29_M_get_insert_hint_unique_posESt23_Rb_tree_const_iteratorISB_ERS7_@Qt_6 6.6.0
 (optional=templinst)_ZNSt8_Rb_treeINSt7__cxx1112basic_stringIcSt11char_traitsIcESaIcEEESt4pairIKS5_bESt10_Select1stIS8_ESt4lessIS5_ESaIS8_EE24_M_get_insert_unique_posERS7_@Qt_6 6.6.0
 (optional=templinst)_ZNSt8_Rb_treeINSt7__cxx1112basic_stringIcSt11char_traitsIcESaIcEEESt4pairIKS5_bESt10_Select1stIS8_ESt4lessIS5_ESaIS8_EE29_M_get_insert_hint_unique_posESt23_Rb_tree_const_iteratorIS8_ERS7_@Qt_6 6.6.0
 (optional=templinst)_ZNSt8_Rb_treeINSt7__cxx1112basic_stringIcSt11char_traitsIcESaIcEEESt4pairIKS5_dESt10_Select1stIS8_ESt4lessIS5_ESaIS8_EE24_M_get_insert_unique_posERS7_@Qt_6 6.6.0
 (optional=templinst)_ZNSt8_Rb_treeINSt7__cxx1112basic_stringIcSt11char_traitsIcESaIcEEESt4pairIKS5_dESt10_Select1stIS8_ESt4lessIS5_ESaIS8_EE29_M_get_insert_hint_unique_posESt23_Rb_tree_const_iteratorIS8_ERS7_@Qt_6 6.6.0
 (optional=templinst)_ZNSt8_Rb_treeINSt7__cxx1112basic_stringIcSt11char_traitsIcESaIcEEESt4pairIKS5_iESt10_Select1stIS8_ESt4lessIS5_ESaIS8_EE11equal_rangeERS7_@Qt_6 6.6.0
 (optional=templinst)_ZNSt8_Rb_treeINSt7__cxx1112basic_stringIcSt11char_traitsIcESaIcEEESt4pairIKS5_iESt10_Select1stIS8_ESt4lessIS5_ESaIS8_EE16_M_insert_uniqueIS8_EES6_ISt17_Rb_tree_iteratorIS8_EbEOT_@Qt_6 6.6.0
 (optional=templinst)_ZNSt8_Rb_treeINSt7__cxx1112basic_stringIcSt11char_traitsIcESaIcEEESt4pairIKS5_iESt10_Select1stIS8_ESt4lessIS5_ESaIS8_EE22_M_emplace_hint_uniqueIJS6_IS5_iEEEESt17_Rb_tree_iteratorIS8_ESt23_Rb_tree_const_iteratorIS8_EDpOT_@Qt_6 6.6.0
 (optional=templinst)_ZNSt8_Rb_treeINSt7__cxx1112basic_stringIcSt11char_traitsIcESaIcEEESt4pairIKS5_iESt10_Select1stIS8_ESt4lessIS5_ESaIS8_EE24_M_get_insert_unique_posERS7_@Qt_6 6.6.0
 (optional=templinst)_ZNSt8_Rb_treeINSt7__cxx1112basic_stringIcSt11char_traitsIcESaIcEEESt4pairIKS5_iESt10_Select1stIS8_ESt4lessIS5_ESaIS8_EE29_M_get_insert_hint_unique_posESt23_Rb_tree_const_iteratorIS8_ERS7_@Qt_6 6.6.0
 (optional=templinst)_ZNSt8_Rb_treeINSt7__cxx1112basic_stringIcSt11char_traitsIcESaIcEEESt4pairIKS5_iESt10_Select1stIS8_ESt4lessIS5_ESaIS8_EE4findERS7_@Qt_6 6.6.0
 (optional=templinst)_ZNSt8_Rb_treeINSt7__cxx1112basic_stringIcSt11char_traitsIcESaIcEEESt4pairIKS5_jESt10_Select1stIS8_ESt4lessIS5_ESaIS8_EE24_M_get_insert_unique_posERS7_@Qt_6 6.6.0
 (optional=templinst)_ZNSt8_Rb_treeINSt7__cxx1112basic_stringIcSt11char_traitsIcESaIcEEESt4pairIKS5_jESt10_Select1stIS8_ESt4lessIS5_ESaIS8_EE29_M_get_insert_hint_unique_posESt23_Rb_tree_const_iteratorIS8_ERS7_@Qt_6 6.6.0
 (optional=templinst)_ZNSt8_Rb_treeINSt7__cxx1112basic_stringIcSt11char_traitsIcESaIcEEESt4pairIKS5_jESt10_Select1stIS8_ESt4lessIS5_ESaIS8_EE4findERS7_@Qt_6 6.6.0
 (optional=templinst)_ZNSt8_Rb_treeINSt7__cxx1112basic_stringIcSt11char_traitsIcESaIcEEESt4pairIKS5_lESt10_Select1stIS8_ESt4lessIS5_ESaIS8_EE24_M_get_insert_unique_posERS7_@Qt_6 6.6.0
 (optional=templinst)_ZNSt8_Rb_treeINSt7__cxx1112basic_stringIcSt11char_traitsIcESaIcEEESt4pairIKS5_lESt10_Select1stIS8_ESt4lessIS5_ESaIS8_EE29_M_get_insert_hint_unique_posESt23_Rb_tree_const_iteratorIS8_ERS7_@Qt_6 6.6.0
 (optional=templinst)_ZNSt8_Rb_treeINSt7__cxx1112basic_stringIcSt11char_traitsIcESaIcEEESt4pairIKS5_mESt10_Select1stIS8_ESt4lessIS5_ESaIS8_EE22_M_emplace_hint_uniqueIJS6_IS5_mEEEESt17_Rb_tree_iteratorIS8_ESt23_Rb_tree_const_iteratorIS8_EDpOT_@Qt_6 6.6.0
 (optional=templinst)_ZNSt8_Rb_treeINSt7__cxx1112basic_stringIcSt11char_traitsIcESaIcEEESt4pairIKS5_mESt10_Select1stIS8_ESt4lessIS5_ESaIS8_EE23_M_get_insert_equal_posERS7_@Qt_6 6.6.0
 (optional=templinst)_ZNSt8_Rb_treeINSt7__cxx1112basic_stringIcSt11char_traitsIcESaIcEEESt4pairIKS5_mESt10_Select1stIS8_ESt4lessIS5_ESaIS8_EE24_M_get_insert_unique_posERS7_@Qt_6 6.6.0
 (optional=templinst)_ZNSt8_Rb_treeINSt7__cxx1112basic_stringIcSt11char_traitsIcESaIcEEESt4pairIKS5_mESt10_Select1stIS8_ESt4lessIS5_ESaIS8_EE29_M_get_insert_hint_unique_posESt23_Rb_tree_const_iteratorIS8_ERS7_@Qt_6 6.6.0
 (optional=templinst)_ZNSt8_Rb_treeINSt7__cxx1112basic_stringIcSt11char_traitsIcESaIcEEESt4pairIKS5_mESt10_Select1stIS8_ESt4lessIS5_ESaIS8_EE4findERS7_@Qt_6 6.6.0
 (optional=templinst)_ZNSt8_Rb_treeINSt7__cxx1112basic_stringIcSt11char_traitsIcESaIcEEESt4pairIKS5_tESt10_Select1stIS8_ESt4lessIS5_ESaIS8_EE11equal_rangeERS7_@Qt_6 6.6.0
 (optional=templinst)_ZNSt8_Rb_treeINSt7__cxx1112basic_stringIcSt11char_traitsIcESaIcEEESt4pairIKS5_tESt10_Select1stIS8_ESt4lessIS5_ESaIS8_EE24_M_get_insert_unique_posERS7_@Qt_6 6.6.0
 (optional=templinst)_ZNSt8_Rb_treeINSt7__cxx1112basic_stringIcSt11char_traitsIcESaIcEEESt4pairIKS5_tESt10_Select1stIS8_ESt4lessIS5_ESaIS8_EE29_M_get_insert_hint_unique_posESt23_Rb_tree_const_iteratorIS8_ERS7_@Qt_6 6.6.0
 (optional=templinst)_ZNSt8_Rb_treeIPKcSt4pairIKS1_mESt10_Select1stIS4_ESt4lessIS1_ESaIS4_EE22_M_emplace_hint_uniqueIJS2_IS1_mEEEESt17_Rb_tree_iteratorIS4_ESt23_Rb_tree_const_iteratorIS4_EDpOT_@Qt_6 6.6.0
 (optional=templinst)_ZNSt8_Rb_treeIPvSt4pairIKS0_NSt7__cxx1112basic_stringIcSt11char_traitsIcESaIcEEEESt10_Select1stIS9_ESt4lessIS0_ESaIS9_EE22_M_emplace_hint_uniqueIJRS0_S8_EEESt17_Rb_tree_iteratorIS9_ESt23_Rb_tree_const_iteratorIS9_EDpOT_@Qt_6 6.6.0
 (optional=templinst)_ZNSt8_Rb_treeIPvSt4pairIKS0_jESt10_Select1stIS3_ESt4lessIS0_ESaIS3_EE22_M_emplace_hint_uniqueIJS1_IS0_jEEEESt17_Rb_tree_iteratorIS3_ESt23_Rb_tree_const_iteratorIS3_EDpOT_@Qt_6 6.6.0
 (optional=templinst)_ZNSt8_Rb_treeISt4pairIN2cc18PaintCacheDataTypeEjES0_IKS3_St14_List_iteratorIS0_IS3_mEEESt10_Select1stIS8_ESt4lessIS3_ESaIS8_EE11equal_rangeERS4_@Qt_6 6.6.0
 (optional=templinst)_ZNSt8_Rb_treeISt4pairIN2cc18PaintCacheDataTypeEjES0_IKS3_St14_List_iteratorIS0_IS3_mEEESt10_Select1stIS8_ESt4lessIS3_ESaIS8_EE22_M_emplace_hint_uniqueIJS3_S7_EEESt17_Rb_tree_iteratorIS8_ESt23_Rb_tree_const_iteratorIS8_EDpOT_@Qt_6 6.6.0
 (optional=templinst)_ZNSt8_Rb_treeISt4pairIN2cc18PaintCacheDataTypeEjES0_IKS3_St14_List_iteratorIS0_IS3_mEEESt10_Select1stIS8_ESt4lessIS3_ESaIS8_EE24_M_get_insert_unique_posERS4_@Qt_6 6.6.0
 (optional=templinst)_ZNSt8_Rb_treeISt4pairIN2cc18PaintCacheDataTypeEjES0_IKS3_St14_List_iteratorIS0_IS3_mEEESt10_Select1stIS8_ESt4lessIS3_ESaIS8_EE29_M_get_insert_hint_unique_posESt23_Rb_tree_const_iteratorIS8_ERS4_@Qt_6 6.6.0
 (optional=templinst)_ZNSt8_Rb_treeISt4pairIN2cc18PaintCacheDataTypeEjES0_IKS3_St14_List_iteratorIS0_IS3_mEEESt10_Select1stIS8_ESt4lessIS3_ESaIS8_EE4findERS4_@Qt_6 6.6.0
 (optional=templinst)_ZNSt8_Rb_treeISt4pairIN2cc22TransferCacheEntryTypeEjES3_St9_IdentityIS3_ESt4lessIS3_ESaIS3_EE16_M_insert_uniqueIRKS3_EES0_ISt17_Rb_tree_iteratorIS3_EbEOT_@Qt_6 6.6.0
 (optional=templinst)_ZNSt8_Rb_treeISt4pairINSt7__cxx1112basic_stringIcSt11char_traitsIcESaIcEEEN7content7CdmInfo10RobustnessEESA_St9_IdentityISA_ESt4lessISA_ESaISA_EE11equal_rangeERKSA_@Qt_6 6.6.0
 (optional=templinst)_ZNSt8_Rb_treeISt4pairINSt7__cxx1112basic_stringIcSt11char_traitsIcESaIcEEEN7content7CdmInfo10RobustnessEESA_St9_IdentityISA_ESt4lessISA_ESaISA_EE16_M_insert_uniqueISA_EES0_ISt17_Rb_tree_iteratorISA_EbEOT_@Qt_6 6.6.0
 (optional=templinst)_ZNSt8_Rb_treeISt4pairINSt7__cxx1112basic_stringIcSt11char_traitsIcESaIcEEES6_ES0_IKS7_St3mapIS6_S6_St4lessIS6_ESaIS0_IKS6_S6_EEEESt10_Select1stISG_ESA_IS7_ESaISG_EE11equal_rangeERS8_@Qt_6 6.6.0
 (optional=templinst)_ZNSt8_Rb_treeISt4pairINSt7__cxx1112basic_stringIcSt11char_traitsIcESaIcEEES6_ES0_IKS7_St3mapIS6_S6_St4lessIS6_ESaIS0_IKS6_S6_EEEESt10_Select1stISG_ESA_IS7_ESaISG_EE24_M_get_insert_unique_posERS8_@Qt_6 6.6.0
 (optional=templinst)_ZNSt8_Rb_treeISt4pairINSt7__cxx1112basic_stringIcSt11char_traitsIcESaIcEEES6_ES0_IKS7_St3mapIS6_S6_St4lessIS6_ESaIS0_IKS6_S6_EEEESt10_Select1stISG_ESA_IS7_ESaISG_EE29_M_get_insert_hint_unique_posESt23_Rb_tree_const_iteratorISG_ERS8_@Qt_6 6.6.0
 (optional=templinst)_ZNSt8_Rb_treeISt4pairINSt7__cxx1112basic_stringIcSt11char_traitsIcESaIcEEES6_ES0_IKS7_bESt10_Select1stIS9_ESt4lessIS7_ESaIS9_EE24_M_get_insert_unique_posERS8_@Qt_6 6.6.0
 (optional=templinst)_ZNSt8_Rb_treeISt4pairINSt7__cxx1112basic_stringIcSt11char_traitsIcESaIcEEES6_ES0_IKS7_bESt10_Select1stIS9_ESt4lessIS7_ESaIS9_EE29_M_get_insert_hint_unique_posESt23_Rb_tree_const_iteratorIS9_ERS8_@Qt_6 6.6.0
 (optional=templinst)_ZNSt8_Rb_treeISt4pairINSt7__cxx1112basic_stringIcSt11char_traitsIcESaIcEEES6_ES7_St9_IdentityIS7_ESt4lessIS7_ESaIS7_EE11equal_rangeERKS7_@Qt_6 6.6.0
 (optional=templinst)_ZNSt8_Rb_treeISt4pairINSt7__cxx1112basic_stringIcSt11char_traitsIcESaIcEEES6_ES7_St9_IdentityIS7_ESt4lessIS7_ESaIS7_EE16_M_insert_uniqueIRKS7_EES0_ISt17_Rb_tree_iteratorIS7_EbEOT_@Qt_6 6.6.0
 (optional=templinst)_ZNSt8_Rb_treeISt4pairINSt7__cxx1112basic_stringIcSt11char_traitsIcESaIcEEES6_ES7_St9_IdentityIS7_ESt4lessIS7_ESaIS7_EE24_M_get_insert_unique_posERKS7_@Qt_6 6.6.0
 (optional=templinst)_ZNSt8_Rb_treeISt4pairINSt7__cxx1112basic_stringIcSt11char_traitsIcESaIcEEEbES0_IKS7_mESt10_Select1stIS9_ESt4lessIS7_ESaIS9_EE24_M_get_insert_unique_posERS8_@Qt_6 6.6.0
 (optional=templinst)_ZNSt8_Rb_treeISt4pairINSt7__cxx1112basic_stringIcSt11char_traitsIcESaIcEEEbES0_IKS7_mESt10_Select1stIS9_ESt4lessIS7_ESaIS9_EE29_M_get_insert_hint_unique_posESt23_Rb_tree_const_iteratorIS9_ERS8_@Qt_6 6.6.0
 (optional=templinst)_ZNSt8_Rb_treeISt4pairIiN10variations15IDCollectionKeyEES3_St9_IdentityIS3_ESt4lessIS3_ESaIS3_EE11equal_rangeERKS3_@Qt_6 6.6.0
 (optional=templinst)_ZNSt8_Rb_treeISt4pairIiN10variations15IDCollectionKeyEES3_St9_IdentityIS3_ESt4lessIS3_ESaIS3_EE16_M_insert_uniqueIRKS3_EES0_ISt17_Rb_tree_iteratorIS3_EbEOT_@Qt_6 6.6.0
 (optional=templinst)_ZNSt8_Rb_treeISt4pairIiN10variations15IDCollectionKeyEES3_St9_IdentityIS3_ESt4lessIS3_ESaIS3_EE24_M_get_insert_unique_posERKS3_@Qt_6 6.6.0
 (optional=templinst)_ZNSt8_Rb_treeISt4pairIiiES0_IKS1_St3mapINSt7__cxx1112basic_stringIcSt11char_traitsIcESaIcEEES9_St4lessIS9_ESaIS0_IKS9_S9_EEEESt10_Select1stISG_ESA_IS1_ESaISG_EE22_M_emplace_hint_uniqueIJS0_IS1_SF_EEEESt17_Rb_tree_iteratorISG_ESt23_Rb_tree_const_iteratorISG_EDpOT_@Qt_6 6.6.0
 (optional=templinst)_ZNSt8_Rb_treeISt4pairIiiES0_IKS1_St3mapINSt7__cxx1112basic_stringIcSt11char_traitsIcESaIcEEES9_St4lessIS9_ESaIS0_IKS9_S9_EEEESt10_Select1stISG_ESA_IS1_ESaISG_EE24_M_get_insert_unique_posERS2_@Qt_6 6.6.0
 (optional=templinst)_ZNSt8_Rb_treeISt4pairIiiES0_IKS1_St3mapINSt7__cxx1112basic_stringIcSt11char_traitsIcESaIcEEES9_St4lessIS9_ESaIS0_IKS9_S9_EEEESt10_Select1stISG_ESA_IS1_ESaISG_EE29_M_get_insert_hint_unique_posESt23_Rb_tree_const_iteratorISG_ERS2_@Qt_6 6.6.0
 (optional=templinst)_ZNSt8_Rb_treeISt4pairIiiES0_IKS1_St3mapINSt7__cxx1112basic_stringIcSt11char_traitsIcESaIcEEES9_St4lessIS9_ESaIS0_IKS9_S9_EEEESt10_Select1stISG_ESA_IS1_ESaISG_EE4findERS2_@Qt_6 6.6.0
 (optional=templinst)_ZNSt8_Rb_treeISt4pairIiiES0_IKS1_iESt10_Select1stIS3_ESt4lessIS1_ESaIS3_EE24_M_get_insert_unique_posERS2_@Qt_6 6.6.0
 (optional=templinst)_ZNSt8_Rb_treeISt4pairIiiES0_IKS1_iESt10_Select1stIS3_ESt4lessIS1_ESaIS3_EE29_M_get_insert_hint_unique_posESt23_Rb_tree_const_iteratorIS3_ERS2_@Qt_6 6.6.0
 (optional=templinst)_ZNSt8_Rb_treeISt4pairIiiES0_IKS1_iESt10_Select1stIS3_ESt4lessIS1_ESaIS3_EE4findERS2_@Qt_6 6.6.0
 (optional=templinst)_ZNSt8_Rb_treeISt4pairIiiES1_St9_IdentityIS1_ESt4lessIS1_ESaIS1_EE17_M_emplace_uniqueIJRtS9_EEES0_ISt17_Rb_tree_iteratorIS1_EbEDpOT_@Qt_6 6.6.0
 (optional=templinst)_ZNSt8_Rb_treeISt4pairIimES1_St9_IdentityIS1_ESt4lessIS1_ESaIS1_EE16_M_insert_uniqueIS1_EES0_ISt17_Rb_tree_iteratorIS1_EbEOT_@Qt_6 6.6.0
 (optional=templinst)_ZNSt8_Rb_treeISt4pairIjjES0_IKS1_St6vectorIjSaIjEEESt10_Select1stIS6_ESt4lessIS1_ESaIS6_EE24_M_get_insert_unique_posERS2_@Qt_6 6.6.0
 (optional=templinst)_ZNSt8_Rb_treeISt4pairIjjES0_IKS1_St6vectorIjSaIjEEESt10_Select1stIS6_ESt4lessIS1_ESaIS6_EE29_M_get_insert_hint_unique_posESt23_Rb_tree_const_iteratorIS6_ERS2_@Qt_6 6.6.0
 (optional=templinst)_ZNSt8_Rb_treeISt4pairIjjES0_IKS1_jESt10_Select1stIS3_ESt4lessIS1_ESaIS3_EE22_M_emplace_hint_uniqueIJS1_RjEEESt17_Rb_tree_iteratorIS3_ESt23_Rb_tree_const_iteratorIS3_EDpOT_@Qt_6 6.6.0
 (optional=templinst)_ZNSt8_Rb_treeISt4pairIjjES0_IKS1_jESt10_Select1stIS3_ESt4lessIS1_ESaIS3_EE24_M_get_insert_unique_posERS2_@Qt_6 6.6.0
 (optional=templinst)_ZNSt8_Rb_treeISt4pairIjjES0_IKS1_jESt10_Select1stIS3_ESt4lessIS1_ESaIS3_EE29_M_get_insert_hint_unique_posESt23_Rb_tree_const_iteratorIS3_ERS2_@Qt_6 6.6.0
 (optional=templinst)_ZNSt8_Rb_treeISt4pairIllES0_IKS1_iESt10_Select1stIS3_ESt4lessIS1_ESaIS3_EE11equal_rangeERS2_@Qt_6 6.6.0
 (optional=templinst)_ZNSt8_Rb_treeISt4pairIllES0_IKS1_iESt10_Select1stIS3_ESt4lessIS1_ESaIS3_EE22_M_emplace_hint_uniqueIJS0_IS1_iEEEESt17_Rb_tree_iteratorIS3_ESt23_Rb_tree_const_iteratorIS3_EDpOT_@Qt_6 6.6.0
 (optional=templinst)_ZNSt8_Rb_treeISt4pairIllES0_IKS1_iESt10_Select1stIS3_ESt4lessIS1_ESaIS3_EE24_M_get_insert_unique_posERS2_@Qt_6 6.6.0
 (optional=templinst)_ZNSt8_Rb_treeISt4pairIttES0_IKS1_jESt10_Select1stIS3_ESt4lessIS1_ESaIS3_EE24_M_get_insert_unique_posERS2_@Qt_6 6.6.0
 (optional=templinst)_ZNSt8_Rb_treeISt4pairIttES0_IKS1_jESt10_Select1stIS3_ESt4lessIS1_ESaIS3_EE29_M_get_insert_hint_unique_posESt23_Rb_tree_const_iteratorIS3_ERS2_@Qt_6 6.6.0
 (optional=templinst)_ZNSt8_Rb_treeISt5tupleIJN2ax5mojom5EventEN2ui16AXEventGenerator5EventEEES7_St9_IdentityIS7_ESt4lessIS7_ESaIS7_EE11equal_rangeERKS7_@Qt_6 6.6.0
 (optional=templinst)_ZNSt8_Rb_treeISt5tupleIJSt17basic_string_viewIcSt11char_traitsIcEES4_S4_EES5_St9_IdentityIS5_ESt4lessIS5_ESaIS5_EE11equal_rangeERKS5_@Qt_6 6.6.0
 (optional=templinst)_ZNSt8_Rb_treeISt5tupleIJmmjEES1_St9_IdentityIS1_ESt4lessIS1_ESaIS1_EE17_M_emplace_uniqueIJRKmSA_RKjEEESt4pairISt17_Rb_tree_iteratorIS1_EbEDpOT_@Qt_6 6.6.0
 (optional=templinst)_ZNSt8_Rb_treeISt5tupleIJmmjEES1_St9_IdentityIS1_ESt4lessIS1_ESaIS1_EE24_M_get_insert_unique_posERKS1_@Qt_6 6.6.0
 (optional=templinst)_ZNSt8_Rb_treeISt5tupleIJtjmmEESt4pairIKS1_mESt10_Select1stIS4_ESt4lessIS1_ESaIS4_EE22_M_emplace_hint_uniqueIJS2_IS1_mEEEESt17_Rb_tree_iteratorIS4_ESt23_Rb_tree_const_iteratorIS4_EDpOT_@Qt_6 6.6.0
 (optional=templinst)_ZNSt8_Rb_treeISt5tupleIJtjmmEESt4pairIKS1_mESt10_Select1stIS4_ESt4lessIS1_ESaIS4_EE24_M_get_insert_unique_posERS3_@Qt_6 6.6.0
 (optional=templinst)_ZNSt8_Rb_treeISt5tupleIJtjmmEESt4pairIKS1_mESt10_Select1stIS4_ESt4lessIS1_ESaIS4_EE29_M_get_insert_hint_unique_posESt23_Rb_tree_const_iteratorIS4_ERS3_@Qt_6 6.6.0
 (optional=templinst)_ZNSt8_Rb_treeISt6vectorIhSaIhEESt4pairIKS2_NSt7__cxx1112basic_stringIcSt11char_traitsIcESaIcEEEESt10_Select1stISB_ESt4lessIS2_ESaISB_EE24_M_get_insert_unique_posERS4_@Qt_6 6.6.0
 (optional=templinst)_ZNSt8_Rb_treeISt6vectorIhSaIhEESt4pairIKS2_NSt7__cxx1112basic_stringIcSt11char_traitsIcESaIcEEEESt10_Select1stISB_ESt4lessIS2_ESaISB_EE29_M_get_insert_hint_unique_posESt23_Rb_tree_const_iteratorISB_ERS4_@Qt_6 6.6.0
 (optional=templinst)_ZNSt8_Rb_treeISt6vectorIhSaIhEESt4pairIKS2_NSt7__cxx1112basic_stringIcSt11char_traitsIcESaIcEEEESt10_Select1stISB_ESt4lessIS2_ESaISB_EE4findERS4_@Qt_6 6.6.0
 (optional=templinst)_ZNSt8_Rb_treeISt6vectorIhSaIhEESt4pairIKS2_S2_ESt10_Select1stIS5_ESt4lessIS2_ESaIS5_EE24_M_get_insert_unique_posERS4_@Qt_6 6.6.0
 (optional=templinst)_ZNSt8_Rb_treeISt6vectorIhSaIhEESt4pairIKS2_S2_ESt10_Select1stIS5_ESt4lessIS2_ESaIS5_EE29_M_get_insert_hint_unique_posESt23_Rb_tree_const_iteratorIS5_ERS4_@Qt_6 6.6.0
 (optional=templinst)_ZNSt8_Rb_treeISt6vectorIhSaIhEESt4pairIKS2_S2_ESt10_Select1stIS5_ESt4lessIS2_ESaIS5_EE4findERS4_@Qt_6 6.6.0
 (optional=templinst)_ZNSt8_Rb_treeISt6vectorIhSaIhEESt4pairIKS2_mESt10_Select1stIS5_ESt4lessIS2_ESaIS5_EE24_M_get_insert_unique_posERS4_@Qt_6 6.6.0
 (optional=templinst)_ZNSt8_Rb_treeISt6vectorIhSaIhEESt4pairIKS2_mESt10_Select1stIS5_ESt4lessIS2_ESaIS5_EE29_M_get_insert_hint_unique_posESt23_Rb_tree_const_iteratorIS5_ERS4_@Qt_6 6.6.0
 (optional=templinst)_ZNSt8_Rb_treeISt6vectorIhSaIhEESt4pairIKS2_mESt10_Select1stIS5_ESt4lessIS2_ESaIS5_EE4findERS4_@Qt_6 6.6.0
 (optional=templinst)_ZNSt8_Rb_treeIffSt9_IdentityIfESt4lessIfESaIfEE16_M_insert_uniqueIfEESt4pairISt17_Rb_tree_iteratorIfEbEOT_@Qt_6 6.6.0
 (optional=templinst)_ZNSt8_Rb_treeIhSt4pairIKhSt3mapINSt7__cxx1112basic_stringIcSt11char_traitsIcESaIcEEES8_St4lessIS8_ESaIS0_IKS8_S8_EEEESt10_Select1stISF_ES9_IhESaISF_EE22_M_emplace_hint_uniqueIJRhRKSE_EEESt17_Rb_tree_iteratorISF_ESt23_Rb_tree_const_iteratorISF_EDpOT_@Qt_6 6.6.0
 (optional=templinst)_ZNSt8_Rb_treeIhhSt9_IdentityIhESt4lessIhESaIhEE16_M_insert_uniqueIhEESt4pairISt17_Rb_tree_iteratorIhEbEOT_@Qt_6 6.6.0
 (optional=templinst)_ZNSt8_Rb_treeIiSt4pairIKiNSt7__cxx1112basic_stringIcSt11char_traitsIcESaIcEEEESt10_Select1stIS8_ESt4lessIiESaIS8_EE22_M_emplace_hint_uniqueIJRiKS7_EEESt17_Rb_tree_iteratorIS8_ESt23_Rb_tree_const_iteratorIS8_EDpOT_@Qt_6 6.6.0
 (optional=templinst)_ZNSt8_Rb_treeIiSt4pairIKiNSt7__cxx1112basic_stringIcSt11char_traitsIcESaIcEEEESt10_Select1stIS8_ESt4lessIiESaIS8_EE22_M_emplace_hint_uniqueIJS0_IiS7_EEEESt17_Rb_tree_iteratorIS8_ESt23_Rb_tree_const_iteratorIS8_EDpOT_@Qt_6 6.6.0
 (optional=templinst)_ZNSt8_Rb_treeIiSt4pairIKiiESt10_Select1stIS2_ESt4lessIiESaIS2_EE22_M_emplace_hint_uniqueIJRS2_EEESt17_Rb_tree_iteratorIS2_ESt23_Rb_tree_const_iteratorIS2_EDpOT_@Qt_6 6.6.0
 (optional=templinst)_ZNSt8_Rb_treeIiSt4pairIKiiESt10_Select1stIS2_ESt4lessIiESaIS2_EE22_M_emplace_hint_uniqueIJRiiEEESt17_Rb_tree_iteratorIS2_ESt23_Rb_tree_const_iteratorIS2_EDpOT_@Qt_6 6.6.0
 (optional=templinst)_ZNSt8_Rb_treeIiSt4pairIKijESt10_Select1stIS2_ESt4lessIiESaIS2_EE22_M_emplace_hint_uniqueIJS0_IijEEEESt17_Rb_tree_iteratorIS2_ESt23_Rb_tree_const_iteratorIS2_EDpOT_@Qt_6 6.6.0
 (optional=templinst)_ZNSt8_Rb_treeIiSt4pairIKilESt10_Select1stIS2_ESt4lessIiESaIS2_EE16_M_insert_uniqueIS2_EES0_ISt17_Rb_tree_iteratorIS2_EbEOT_@Qt_6 6.6.0
 (optional=templinst)_ZNSt8_Rb_treeIiSt4pairIKimESt10_Select1stIS2_ESt4lessIiESaIS2_EE16_M_insert_uniqueIS2_EES0_ISt17_Rb_tree_iteratorIS2_EbEOT_@Qt_6 6.6.0
 (optional=templinst)_ZNSt8_Rb_treeIiSt4pairIKimESt10_Select1stIS2_ESt4lessIiESaIS2_EE22_M_emplace_hint_uniqueIJRiRKmEEESt17_Rb_tree_iteratorIS2_ESt23_Rb_tree_const_iteratorIS2_EDpOT_@Qt_6 6.6.0
 (optional=templinst)_ZNSt8_Rb_treeIiSt4pairIKimESt10_Select1stIS2_ESt4lessIiESaIS2_EE22_M_emplace_hint_uniqueIJiRKmEEESt17_Rb_tree_iteratorIS2_ESt23_Rb_tree_const_iteratorIS2_EDpOT_@Qt_6 6.6.0
 (optional=templinst)_ZNSt8_Rb_treeIiiSt9_IdentityIiESt4lessIiESaIiEE16_M_emplace_equalIJRKtEEESt17_Rb_tree_iteratorIiEDpOT_@Qt_6 6.6.0
 (optional=templinst)_ZNSt8_Rb_treeIiiSt9_IdentityIiESt4lessIiESaIiEE16_M_insert_uniqueIRKiEESt4pairISt17_Rb_tree_iteratorIiEbEOT_@Qt_6 6.6.0
 (optional=templinst)_ZNSt8_Rb_treeIiiSt9_IdentityIiESt4lessIiESaIiEE16_M_insert_uniqueIiEESt4pairISt17_Rb_tree_iteratorIiEbEOT_@Qt_6 6.6.0
 (optional=templinst)_ZNSt8_Rb_treeIiiSt9_IdentityIiESt4lessIiESaIiEE17_M_emplace_uniqueIJRKiEEESt4pairISt17_Rb_tree_iteratorIiEbEDpOT_@Qt_6 6.6.0
 (optional=templinst)_ZNSt8_Rb_treeIiiSt9_IdentityIiESt4lessIiESaIiEE17_M_emplace_uniqueIJiEEESt4pairISt17_Rb_tree_iteratorIiEbEDpOT_@Qt_6 6.6.0
 (optional=templinst)_ZNSt8_Rb_treeIjSt4pairIKjN7content22PepperVideoDecoderHost18PictureBufferStateEESt10_Select1stIS5_ESt4lessIjESaIS5_EE22_M_emplace_hint_uniqueIJS0_IjS4_EEEESt17_Rb_tree_iteratorIS5_ESt23_Rb_tree_const_iteratorIS5_EDpOT_@Qt_6 6.6.0
 (optional=templinst)_ZNSt8_Rb_treeIjSt4pairIKjN7content22PepperVideoDecoderHost18PictureBufferStateEESt10_Select1stIS5_ESt4lessIjESaIS5_EE4swapERSB_@Qt_6 6.6.0
 (optional=templinst)_ZNSt8_Rb_treeIjSt4pairIKjNSt7__cxx1112basic_stringIcSt11char_traitsIcESaIcEEEESt10_Select1stIS8_ESt4lessIjESaIS8_EE22_M_emplace_hint_uniqueIJRKSt21piecewise_construct_tSt5tupleIJRS1_EESJ_IJEEEEESt17_Rb_tree_iteratorIS8_ESt23_Rb_tree_const_iteratorIS8_EDpOT_@Qt_6 6.6.0
 (optional=templinst)_ZNSt8_Rb_treeIjSt4pairIKjNSt7__cxx1112basic_stringIcSt11char_traitsIcESaIcEEEESt10_Select1stIS8_ESt4lessIjESaIS8_EE22_M_emplace_hint_uniqueIJS0_IjS7_EEEESt17_Rb_tree_iteratorIS8_ESt23_Rb_tree_const_iteratorIS8_EDpOT_@Qt_6 6.6.0
 (optional=templinst)_ZNSt8_Rb_treeIjSt4pairIKjSt3setIjSt4lessIjESaIjEEESt10_Select1stIS7_ES4_SaIS7_EE22_M_emplace_hint_uniqueIJRjS6_EEESt17_Rb_tree_iteratorIS7_ESt23_Rb_tree_const_iteratorIS7_EDpOT_@Qt_6 6.6.0
 (optional=templinst)_ZNSt8_Rb_treeIjSt4pairIKjiESt10_Select1stIS2_ESt4lessIjESaIS2_EE22_M_emplace_hint_uniqueIJS0_IjiEEEESt17_Rb_tree_iteratorIS2_ESt23_Rb_tree_const_iteratorIS2_EDpOT_@Qt_6 6.6.0
 (optional=templinst)_ZNSt8_Rb_treeIjSt4pairIKjjESt10_Select1stIS2_ESt4lessIjESaIS2_EE22_M_emplace_hint_uniqueIJRjSA_EEESt17_Rb_tree_iteratorIS2_ESt23_Rb_tree_const_iteratorIS2_EDpOT_@Qt_6 6.6.0
 (optional=templinst)_ZNSt8_Rb_treeIjSt4pairIKjjESt10_Select1stIS2_ESt4lessIjESaIS2_EE22_M_emplace_hint_uniqueIJS0_IjjEEEESt17_Rb_tree_iteratorIS2_ESt23_Rb_tree_const_iteratorIS2_EDpOT_@Qt_6 6.6.0
 (optional=templinst)_ZNSt8_Rb_treeIjSt4pairIKjmESt10_Select1stIS2_ESt4lessIjESaIS2_EE22_M_emplace_hint_uniqueIJS0_IjmEEEESt17_Rb_tree_iteratorIS2_ESt23_Rb_tree_const_iteratorIS2_EDpOT_@Qt_6 6.6.0
 (optional=templinst)_ZNSt8_Rb_treeIjSt4pairIKjtESt10_Select1stIS2_ESt4lessIjESaIS2_EE22_M_emplace_hint_uniqueIJS0_IjtEEEESt17_Rb_tree_iteratorIS2_ESt23_Rb_tree_const_iteratorIS2_EDpOT_@Qt_6 6.6.0
 (optional=templinst)_ZNSt8_Rb_treeIjSt4pairIKjtESt10_Select1stIS2_ESt4lessIjESaIS2_EE22_M_emplace_hint_uniqueIJS0_IthEEEESt17_Rb_tree_iteratorIS2_ESt23_Rb_tree_const_iteratorIS2_EDpOT_@Qt_6 6.6.0
 (optional=templinst)_ZNSt8_Rb_treeIjjSt9_IdentityIjESt4lessIjESaIjEE16_M_insert_uniqueIRKjEESt4pairISt17_Rb_tree_iteratorIjEbEOT_@Qt_6 6.6.0
 (optional=templinst)_ZNSt8_Rb_treeIjjSt9_IdentityIjESt4lessIjESaIjEE16_M_insert_uniqueIjEESt4pairISt17_Rb_tree_iteratorIjEbEOT_@Qt_6 6.6.0
 (optional=templinst)_ZNSt8_Rb_treeIjjSt9_IdentityIjESt4lessIjESaIjEE17_M_emplace_uniqueIJRjEEESt4pairISt17_Rb_tree_iteratorIjEbEDpOT_@Qt_6 6.6.0
 (optional=templinst)_ZNSt8_Rb_treeIjjSt9_IdentityIjESt4lessIjESaIjEE17_M_emplace_uniqueIJjEEESt4pairISt17_Rb_tree_iteratorIjEbEDpOT_@Qt_6 6.6.0
 (optional=templinst)_ZNSt8_Rb_treeIlSt4pairIKlSt5arrayIlLm5EEESt10_Select1stIS4_ESt4lessIlESaIS4_EE22_M_emplace_hint_uniqueIJRlRS3_EEESt17_Rb_tree_iteratorIS4_ESt23_Rb_tree_const_iteratorIS4_EDpOT_@Qt_6 6.6.0
 (optional=templinst)_ZNSt8_Rb_treeIlSt4pairIKliESt10_Select1stIS2_ESt4lessIlESaIS2_EE22_M_emplace_hint_uniqueIJRS2_EEESt17_Rb_tree_iteratorIS2_ESt23_Rb_tree_const_iteratorIS2_EDpOT_@Qt_6 6.6.0
 (optional=templinst)_ZNSt8_Rb_treeIlSt4pairIKliESt10_Select1stIS2_ESt4lessIlESaIS2_EE22_M_emplace_hint_uniqueIJRlSA_EEESt17_Rb_tree_iteratorIS2_ESt23_Rb_tree_const_iteratorIS2_EDpOT_@Qt_6 6.6.0
 (optional=templinst)_ZNSt8_Rb_treeIlSt4pairIKllESt10_Select1stIS2_ESt4lessIlESaIS2_EE22_M_emplace_hint_uniqueIJRS1_SA_EEESt17_Rb_tree_iteratorIS2_ESt23_Rb_tree_const_iteratorIS2_EDpOT_@Qt_6 6.6.0
 (optional=templinst)_ZNSt8_Rb_treeIlSt4pairIKllESt10_Select1stIS2_ESt4lessIlESaIS2_EE22_M_emplace_hint_uniqueIJS0_IllEEEESt17_Rb_tree_iteratorIS2_ESt23_Rb_tree_const_iteratorIS2_EDpOT_@Qt_6 6.6.0
 (optional=templinst)_ZNSt8_Rb_treeIlSt4pairIKlmESt10_Select1stIS2_ESt4lessIlESaIS2_EE22_M_emplace_hint_uniqueIJRS0_IlmEEEESt17_Rb_tree_iteratorIS2_ESt23_Rb_tree_const_iteratorIS2_EDpOT_@Qt_6 6.6.0
 (optional=templinst)_ZNSt8_Rb_treeIlSt4pairIKlmESt10_Select1stIS2_ESt4lessIlESaIS2_EE22_M_emplace_hint_uniqueIJS0_IlmEEEESt17_Rb_tree_iteratorIS2_ESt23_Rb_tree_const_iteratorIS2_EDpOT_@Qt_6 6.6.0
 (optional=templinst)_ZNSt8_Rb_treeIllSt9_IdentityIlESt4lessIlESaIlEE12_M_erase_auxESt23_Rb_tree_const_iteratorIlES7_@Qt_6 6.6.0
 (optional=templinst)_ZNSt8_Rb_treeIllSt9_IdentityIlESt4lessIlESaIlEE16_M_insert_uniqueIRKlEESt4pairISt17_Rb_tree_iteratorIlEbEOT_@Qt_6 6.6.0
 (optional=templinst)_ZNSt8_Rb_treeIllSt9_IdentityIlESt4lessIlESaIlEE16_M_insert_uniqueIlEESt4pairISt17_Rb_tree_iteratorIlEbEOT_@Qt_6 6.6.0
 (optional=templinst)_ZNSt8_Rb_treeIllSt9_IdentityIlESt4lessIlESaIlEE17_M_emplace_uniqueIJRlEEESt4pairISt17_Rb_tree_iteratorIlEbEDpOT_@Qt_6 6.6.0
 (optional=templinst)_ZNSt8_Rb_treeImSt4pairIKmiESt10_Select1stIS2_ESt4lessImESaIS2_EE22_M_emplace_hint_uniqueIJS0_ImiEEEESt17_Rb_tree_iteratorIS2_ESt23_Rb_tree_const_iteratorIS2_EDpOT_@Qt_6 6.6.0
 (optional=templinst)_ZNSt8_Rb_treeImSt4pairIKmjESt10_Select1stIS2_ESt4lessImESaIS2_EE22_M_emplace_hint_uniqueIJRKSt21piecewise_construct_tSt5tupleIJRS1_EESD_IJEEEEESt17_Rb_tree_iteratorIS2_ESt23_Rb_tree_const_iteratorIS2_EDpOT_@Qt_6 6.6.0
 (optional=templinst)_ZNSt8_Rb_treeImmSt9_IdentityImESt4lessImESaImEE16_M_insert_uniqueIRKmEESt4pairISt17_Rb_tree_iteratorImEbEOT_@Qt_6 6.6.0
 (optional=templinst)_ZNSt8_Rb_treeImmSt9_IdentityImESt4lessImESaImEE16_M_insert_uniqueImEESt4pairISt17_Rb_tree_iteratorImEbEOT_@Qt_6 6.6.0
 (optional=templinst)_ZNSt8_Rb_treeItSt4pairIKtNSt7__cxx1112basic_stringIcSt11char_traitsIcESaIcEEEESt10_Select1stIS8_ESt4lessItESaIS8_EE22_M_emplace_hint_uniqueIJRtS7_EEESt17_Rb_tree_iteratorIS8_ESt23_Rb_tree_const_iteratorIS8_EDpOT_@Qt_6 6.6.0
 (optional=templinst)_ZNSt8_Rb_treeItSt4pairIKtjESt10_Select1stIS2_ESt4lessItESaIS2_EE22_M_emplace_hint_uniqueIJRS2_EEESt17_Rb_tree_iteratorIS2_ESt23_Rb_tree_const_iteratorIS2_EDpOT_@Qt_6 6.6.0
 (optional=templinst)_ZNSt8_Rb_treeItSt4pairIKtjESt10_Select1stIS2_ESt4lessItESaIS2_EE22_M_emplace_hint_uniqueIJS0_ItjEEEESt17_Rb_tree_iteratorIS2_ESt23_Rb_tree_const_iteratorIS2_EDpOT_@Qt_6 6.6.0
 (optional=templinst)_ZNSt8_Rb_treeItSt4pairIKttESt10_Select1stIS2_ESt4lessItESaIS2_EE22_M_emplace_hint_uniqueIJRS1_RtEEESt17_Rb_tree_iteratorIS2_ESt23_Rb_tree_const_iteratorIS2_EDpOT_@Qt_6 6.6.0
 (optional=templinst)_ZNSt8_Rb_treeIttSt9_IdentityItESt4lessItESaItEE16_M_insert_uniqueIRKtEESt4pairISt17_Rb_tree_iteratorItEbEOT_@Qt_6 6.6.0
 (optional=templinst)_ZNSt8_Rb_treeIttSt9_IdentityItESt4lessItESaItEE16_M_insert_uniqueItEESt4pairISt17_Rb_tree_iteratorItEbEOT_@Qt_6 6.6.0
 (optional=templinst)_ZNSt8__detail17__regex_algo_implIN9__gnu_cxx17__normal_iteratorIPKcNSt7__cxx1112basic_stringIcSt11char_traitsIcESaIcEEEEESaINS5_9sub_matchISB_EEEcNS5_12regex_traitsIcEEEEbT_SH_RNS5_13match_resultsISH_T0_EERKNS5_11basic_regexIT1_T2_EENSt15regex_constants15match_flag_typeENS_20_RegexExecutorPolicyEb@Qt_6 6.6.0
 (optional=templinst)_ZNSt8__detail18__to_chars_10_implIjEEvPcjT_@Qt_6 6.6.0
 (optional=templinst)_ZNSt8__detail18__to_chars_10_implImEEvPcjT_@Qt_6 6.6.0
 (optional=templinst)_ZNSt8__detail8_ScannerIcE12_M_eat_classEc@Qt_6 6.6.0
 (optional=templinst)_ZNSt8__detail8_ScannerIcE14_M_scan_normalEv@Qt_6 6.6.0
 (optional=templinst)_ZNSt8__detail8_ScannerIcE16_M_scan_in_braceEv@Qt_6 6.6.0
 (optional=templinst)_ZNSt8__detail8_ScannerIcE17_M_eat_escape_awkEv@Qt_6 6.6.0
 (optional=templinst)_ZNSt8__detail8_ScannerIcE18_M_eat_escape_ecmaEv@Qt_6 6.6.0
 (optional=templinst)_ZNSt8__detail8_ScannerIcE18_M_scan_in_bracketEv@Qt_6 6.6.0
 (optional=templinst)_ZNSt8__detail8_ScannerIcE19_M_eat_escape_posixEv@Qt_6 6.6.0
 (optional=templinst)_ZNSt8__detail8_ScannerIcEC1EPKcS3_NSt15regex_constants18syntax_option_typeESt6locale@Qt_6 6.6.0
 (optional=templinst)_ZNSt8__detail8_ScannerIcEC2EPKcS3_NSt15regex_constants18syntax_option_typeESt6locale@Qt_6 6.6.0
 (optional=templinst)_ZNSt8__detail9_CompilerINSt7__cxx1112regex_traitsIcEEE11_M_try_charEv@Qt_6 6.6.0
 (optional=templinst)_ZNSt8__detail9_CompilerINSt7__cxx1112regex_traitsIcEEE12_M_assertionEv@Qt_6 6.6.0
 (optional=templinst)_ZNSt8__detail9_CompilerINSt7__cxx1112regex_traitsIcEEE13_M_quantifierEv@Qt_6 6.6.0
 (optional=templinst)_ZNSt8__detail9_CompilerINSt7__cxx1112regex_traitsIcEEE14_M_alternativeEv@Qt_6 6.6.0
 (optional=templinst)_ZNSt8__detail9_CompilerINSt7__cxx1112regex_traitsIcEEE14_M_disjunctionEv@Qt_6 6.6.0
 (optional=templinst)_ZNSt8__detail9_CompilerINSt7__cxx1112regex_traitsIcEEE16_M_cur_int_valueEi@Qt_6 6.6.0
 (optional=templinst)_ZNSt8__detail9_CompilerINSt7__cxx1112regex_traitsIcEEE18_M_expression_termILb0ELb0EEEbRNS4_13_BracketStateERNS_15_BracketMatcherIS3_XT_EXT0_EEE@Qt_6 6.6.0
 (optional=templinst)_ZNSt8__detail9_CompilerINSt7__cxx1112regex_traitsIcEEE18_M_expression_termILb0ELb1EEEbRNS4_13_BracketStateERNS_15_BracketMatcherIS3_XT_EXT0_EEE@Qt_6 6.6.0
 (optional=templinst)_ZNSt8__detail9_CompilerINSt7__cxx1112regex_traitsIcEEE18_M_expression_termILb1ELb0EEEbRNS4_13_BracketStateERNS_15_BracketMatcherIS3_XT_EXT0_EEE@Qt_6 6.6.0
 (optional=templinst)_ZNSt8__detail9_CompilerINSt7__cxx1112regex_traitsIcEEE18_M_expression_termILb1ELb1EEEbRNS4_13_BracketStateERNS_15_BracketMatcherIS3_XT_EXT0_EEE@Qt_6 6.6.0
 (optional=templinst)_ZNSt8__detail9_CompilerINSt7__cxx1112regex_traitsIcEEE21_M_bracket_expressionEv@Qt_6 6.6.0
 (optional=templinst)_ZNSt8__detail9_CompilerINSt7__cxx1112regex_traitsIcEEE25_M_insert_bracket_matcherILb0ELb0EEEvb@Qt_6 6.6.0
 (optional=templinst)_ZNSt8__detail9_CompilerINSt7__cxx1112regex_traitsIcEEE25_M_insert_bracket_matcherILb0ELb1EEEvb@Qt_6 6.6.0
 (optional=templinst)_ZNSt8__detail9_CompilerINSt7__cxx1112regex_traitsIcEEE25_M_insert_bracket_matcherILb1ELb0EEEvb@Qt_6 6.6.0
 (optional=templinst)_ZNSt8__detail9_CompilerINSt7__cxx1112regex_traitsIcEEE25_M_insert_bracket_matcherILb1ELb1EEEvb@Qt_6 6.6.0
 (optional=templinst)_ZNSt8__detail9_CompilerINSt7__cxx1112regex_traitsIcEEE33_M_insert_character_class_matcherILb0ELb0EEEvv@Qt_6 6.6.0
 (optional=templinst)_ZNSt8__detail9_CompilerINSt7__cxx1112regex_traitsIcEEE33_M_insert_character_class_matcherILb0ELb1EEEvv@Qt_6 6.6.0
 (optional=templinst)_ZNSt8__detail9_CompilerINSt7__cxx1112regex_traitsIcEEE33_M_insert_character_class_matcherILb1ELb0EEEvv@Qt_6 6.6.0
 (optional=templinst)_ZNSt8__detail9_CompilerINSt7__cxx1112regex_traitsIcEEE33_M_insert_character_class_matcherILb1ELb1EEEvv@Qt_6 6.6.0
 (optional=templinst)_ZNSt8__detail9_CompilerINSt7__cxx1112regex_traitsIcEEE7_M_atomEv@Qt_6 6.6.0
 (optional=templinst)_ZNSt8__detail9_CompilerINSt7__cxx1112regex_traitsIcEEEC1EPKcS6_RKSt6localeNSt15regex_constants18syntax_option_typeE@Qt_6 6.6.0
 (optional=templinst)_ZNSt8__detail9_CompilerINSt7__cxx1112regex_traitsIcEEEC2EPKcS6_RKSt6localeNSt15regex_constants18syntax_option_typeE@Qt_6 6.6.0
 (optional=templinst)_ZNSt8__detail9_ExecutorIN9__gnu_cxx17__normal_iteratorIPKcNSt7__cxx1112basic_stringIcSt11char_traitsIcESaIcEEEEESaINS5_9sub_matchISB_EEENS5_12regex_traitsIcEELb0EE12_M_lookaheadEl@Qt_6 6.6.0
 (optional=templinst)_ZNSt8__detail9_ExecutorIN9__gnu_cxx17__normal_iteratorIPKcNSt7__cxx1112basic_stringIcSt11char_traitsIcESaIcEEEEESaINS5_9sub_matchISB_EEENS5_12regex_traitsIcEELb0EE16_M_rep_once_moreENSH_11_Match_modeEl@Qt_6 6.6.0
 (optional=templinst)_ZNSt8__detail9_ExecutorIN9__gnu_cxx17__normal_iteratorIPKcNSt7__cxx1112basic_stringIcSt11char_traitsIcESaIcEEEEESaINS5_9sub_matchISB_EEENS5_12regex_traitsIcEELb0EE17_M_handle_backrefENSH_11_Match_modeEl@Qt_6 6.6.0
 (optional=templinst)_ZNSt8__detail9_ExecutorIN9__gnu_cxx17__normal_iteratorIPKcNSt7__cxx1112basic_stringIcSt11char_traitsIcESaIcEEEEESaINS5_9sub_matchISB_EEENS5_12regex_traitsIcEELb0EE6_M_dfsENSH_11_Match_modeEl@Qt_6 6.6.0
 (optional=templinst)_ZNSt8__detail9_ExecutorIN9__gnu_cxx17__normal_iteratorIPKcNSt7__cxx1112basic_stringIcSt11char_traitsIcESaIcEEEEESaINS5_9sub_matchISB_EEENS5_12regex_traitsIcEELb1EE12_M_lookaheadEl@Qt_6 6.6.0
 (optional=templinst)_ZNSt8__detail9_ExecutorIN9__gnu_cxx17__normal_iteratorIPKcNSt7__cxx1112basic_stringIcSt11char_traitsIcESaIcEEEEESaINS5_9sub_matchISB_EEENS5_12regex_traitsIcEELb1EE16_M_rep_once_moreENSH_11_Match_modeEl@Qt_6 6.6.0
 (optional=templinst)_ZNSt8__detail9_ExecutorIN9__gnu_cxx17__normal_iteratorIPKcNSt7__cxx1112basic_stringIcSt11char_traitsIcESaIcEEEEESaINS5_9sub_matchISB_EEENS5_12regex_traitsIcEELb1EE17_M_handle_backrefENSH_11_Match_modeEl@Qt_6 6.6.0
 (optional=templinst)_ZNSt8__detail9_ExecutorIN9__gnu_cxx17__normal_iteratorIPKcNSt7__cxx1112basic_stringIcSt11char_traitsIcESaIcEEEEESaINS5_9sub_matchISB_EEENS5_12regex_traitsIcEELb1EE6_M_dfsENSH_11_Match_modeEl@Qt_6 6.6.0
 (optional=templinst)_ZNSt8__detail9_Map_baseI8VkFormatSt4pairIKS1_jESaIS4_ENS_10_Select1stESt8equal_toIS1_ESt4hashIS1_ENS_18_Mod_range_hashingENS_20_Default_ranged_hashENS_20_Prime_rehash_policyENS_17_Hashtable_traitsILb0ELb0ELb1EEELb1EEixERS3_@Qt_6 6.6.0
 (optional=templinst)_ZNSt8__detail9_Map_baseIN3ukm11SourceIdObj4TypeESt4pairIKS3_iESaIS6_ENS_10_Select1stESt8equal_toIS3_ESt4hashIS3_ENS_18_Mod_range_hashingENS_20_Default_ranged_hashENS_20_Prime_rehash_policyENS_17_Hashtable_traitsILb0ELb0ELb1EEELb1EEixEOS3_@Qt_6 6.6.0
 (optional=templinst)_ZNSt8__detail9_Map_baseINSt7__cxx1112basic_stringIDsSt11char_traitsIDsESaIDsEEESt4pairIKS6_S6_ESaIS9_ENS_10_Select1stESt8equal_toIS6_ESt4hashIS6_ENS_18_Mod_range_hashingENS_20_Default_ranged_hashENS_20_Prime_rehash_policyENS_17_Hashtable_traitsILb1ELb0ELb1EEELb1EEixERS8_@Qt_6 6.6.0
 (optional=templinst)_ZNSt8__detail9_Map_baseINSt7__cxx1112basic_stringIcSt11char_traitsIcESaIcEEESt4pairIKS6_N12sqlite_proto12KeyValueDataIN7content5proto25PrivateAggregationBudgetsENS9_8internal11FakeCompareISD_EEE17DeferredOperationEESaISJ_ENS_10_Select1stESt8equal_toIS6_ESt4hashIS6_ENS_18_Mod_range_hashingENS_20_Default_ranged_hashENS_20_Prime_rehash_policyENS_17_Hashtable_traitsILb1ELb0ELb1EEELb1EEixERS8_@Qt_6 6.6.0
 (optional=templinst)_ZNSt8__detail9_Map_baseINSt7__cxx1112basic_stringIcSt11char_traitsIcESaIcEEESt4pairIKS6_N12sqlite_proto12KeyValueDataIN7network22TrustTokenIssuerConfigENS9_8internal11FakeCompareISC_EEE17DeferredOperationEESaISI_ENS_10_Select1stESt8equal_toIS6_ESt4hashIS6_ENS_18_Mod_range_hashingENS_20_Default_ranged_hashENS_20_Prime_rehash_policyENS_17_Hashtable_traitsILb1ELb0ELb1EEELb1EEixERS8_@Qt_6 6.6.0
 (optional=templinst)_ZNSt8__detail9_Map_baseINSt7__cxx1112basic_stringIcSt11char_traitsIcESaIcEEESt4pairIKS6_N12sqlite_proto12KeyValueDataIN7network24TrustTokenToplevelConfigENS9_8internal11FakeCompareISC_EEE17DeferredOperationEESaISI_ENS_10_Select1stESt8equal_toIS6_ESt4hashIS6_ENS_18_Mod_range_hashingENS_20_Default_ranged_hashENS_20_Prime_rehash_policyENS_17_Hashtable_traitsILb1ELb0ELb1EEELb1EEixERS8_@Qt_6 6.6.0
 (optional=templinst)_ZNSt8__detail9_Map_baseINSt7__cxx1112basic_stringIcSt11char_traitsIcESaIcEEESt4pairIKS6_N12sqlite_proto12KeyValueDataIN7network34TrustTokenIssuerToplevelPairConfigENS9_8internal11FakeCompareISC_EEE17DeferredOperationEESaISI_ENS_10_Select1stESt8equal_toIS6_ESt4hashIS6_ENS_18_Mod_range_hashingENS_20_Default_ranged_hashENS_20_Prime_rehash_policyENS_17_Hashtable_traitsILb1ELb0ELb1EEELb1EEixERS8_@Qt_6 6.6.0
 (optional=templinst)_ZNSt8__detail9_Map_baseINSt7__cxx1112basic_stringIcSt11char_traitsIcESaIcEEESt4pairIKS6_N3gpu5gles212ProgramCache19LinkedProgramStatusEESaISD_ENS_10_Select1stESt8equal_toIS6_ESt4hashIS6_ENS_18_Mod_range_hashingENS_20_Default_ranged_hashENS_20_Prime_rehash_policyENS_17_Hashtable_traitsILb1ELb0ELb1EEELb1EEixERS8_@Qt_6 6.6.0
 (optional=templinst)_ZNSt8__detail9_Map_baseINSt7__cxx1112basic_stringIcSt11char_traitsIcESaIcEEESt4pairIKS6_N5media8EmeCodecEESaISB_ENS_10_Select1stESt8equal_toIS6_ESt4hashIS6_ENS_18_Mod_range_hashingENS_20_Default_ranged_hashENS_20_Prime_rehash_policyENS_17_Hashtable_traitsILb1ELb0ELb1EEELb1EEixERS8_@Qt_6 6.6.0
 (optional=templinst)_ZNSt8__detail9_Map_baseINSt7__cxx1112basic_stringIcSt11char_traitsIcESaIcEEESt4pairIKS6_N6device5mojom10SensorTypeEESaISC_ENS_10_Select1stESt8equal_toIS6_ESt4hashIS6_ENS_18_Mod_range_hashingENS_20_Default_ranged_hashENS_20_Prime_rehash_policyENS_17_Hashtable_traitsILb1ELb0ELb1EEELb1EEixERS8_@Qt_6 6.6.0
 (optional=templinst)_ZNSt8__detail9_Map_baseINSt7__cxx1112basic_stringIcSt11char_traitsIcESaIcEEESt4pairIKS6_S6_ESaIS9_ENS_10_Select1stESt8equal_toIS6_ESt4hashIS6_ENS_18_Mod_range_hashingENS_20_Default_ranged_hashENS_20_Prime_rehash_policyENS_17_Hashtable_traitsILb1ELb0ELb1EEELb1EEixEOS6_@Qt_6 6.6.0
 (optional=templinst)_ZNSt8__detail9_Map_baseINSt7__cxx1112basic_stringIcSt11char_traitsIcESaIcEEESt4pairIKS6_S7_IS6_bEESaISA_ENS_10_Select1stESt8equal_toIS6_ESt4hashIS6_ENS_18_Mod_range_hashingENS_20_Default_ranged_hashENS_20_Prime_rehash_policyENS_17_Hashtable_traitsILb1ELb0ELb1EEELb1EEixERS8_@Qt_6 6.6.0
 (optional=templinst)_ZNSt8__detail9_Map_baseINSt7__cxx1112basic_stringIcSt11char_traitsIcESaIcEEESt4pairIKS6_St6vectorIS6_SaIS6_EEESaISC_ENS_10_Select1stESt8equal_toIS6_ESt4hashIS6_ENS_18_Mod_range_hashingENS_20_Default_ranged_hashENS_20_Prime_rehash_policyENS_17_Hashtable_traitsILb1ELb0ELb1EEELb1EEixEOS6_@Qt_6 6.6.0
 (optional=templinst)_ZNSt8__detail9_Map_baseINSt7__cxx1112basic_stringIcSt11char_traitsIcESaIcEEESt4pairIKS6_St6vectorIS6_SaIS6_EEESaISC_ENS_10_Select1stESt8equal_toIS6_ESt4hashIS6_ENS_18_Mod_range_hashingENS_20_Default_ranged_hashENS_20_Prime_rehash_policyENS_17_Hashtable_traitsILb1ELb0ELb1EEELb1EEixERS8_@Qt_6 6.6.0
 (optional=templinst)_ZNSt8__detail9_Map_baseINSt7__cxx1112basic_stringIcSt11char_traitsIcESaIcEEESt4pairIKS6_iESaIS9_ENS_10_Select1stESt8equal_toIS6_ESt4hashIS6_ENS_18_Mod_range_hashingENS_20_Default_ranged_hashENS_20_Prime_rehash_policyENS_17_Hashtable_traitsILb1ELb0ELb1EEELb1EEixEOS6_@Qt_6 6.6.0
 (optional=templinst)_ZNSt8__detail9_Map_baseINSt7__cxx1112basic_stringIcSt11char_traitsIcESaIcEEESt4pairIKS6_iESaIS9_ENS_10_Select1stESt8equal_toIS6_ESt4hashIS6_ENS_18_Mod_range_hashingENS_20_Default_ranged_hashENS_20_Prime_rehash_policyENS_17_Hashtable_traitsILb1ELb0ELb1EEELb1EEixERS8_@Qt_6 6.6.0
 (optional=templinst)_ZNSt8__detail9_Map_baseINSt7__cxx1112basic_stringIcSt11char_traitsIcESaIcEEESt4pairIKS6_jESaIS9_ENS_10_Select1stESt8equal_toIS6_ESt4hashIS6_ENS_18_Mod_range_hashingENS_20_Default_ranged_hashENS_20_Prime_rehash_policyENS_17_Hashtable_traitsILb1ELb0ELb1EEELb1EEixERS8_@Qt_6 6.6.0
 (optional=templinst)_ZNSt8__detail9_Map_baseINSt7__cxx1112basic_stringIcSt11char_traitsIcESaIcEEESt4pairIKS6_mESaIS9_ENS_10_Select1stESt8equal_toIS6_ESt4hashIS6_ENS_18_Mod_range_hashingENS_20_Default_ranged_hashENS_20_Prime_rehash_policyENS_17_Hashtable_traitsILb1ELb0ELb1EEELb1EEixERS8_@Qt_6 6.6.0
 (optional=templinst)_ZNSt8__detail9_Map_baseIPKvSt4pairIKS2_iESaIS5_ENS_10_Select1stESt8equal_toIS2_ESt4hashIS2_ENS_18_Mod_range_hashingENS_20_Default_ranged_hashENS_20_Prime_rehash_policyENS_17_Hashtable_traitsILb0ELb0ELb1EEELb1EEixEOS2_@Qt_6 6.6.0
 (optional=templinst)_ZNSt8__detail9_Map_baseIiSt4pairIKiN2v88internal19RetainingPathOptionEESaIS6_ENS_10_Select1stESt8equal_toIiESt4hashIiENS_18_Mod_range_hashingENS_20_Default_ranged_hashENS_20_Prime_rehash_policyENS_17_Hashtable_traitsILb0ELb0ELb1EEELb1EEixERS2_@Qt_6 6.6.0
 (optional=templinst)_ZNSt8__detail9_Map_baseIiSt4pairIKiNSt7__cxx1112basic_stringIcSt11char_traitsIcESaIcEEEESaIS9_ENS_10_Select1stESt8equal_toIiESt4hashIiENS_18_Mod_range_hashingENS_20_Default_ranged_hashENS_20_Prime_rehash_policyENS_17_Hashtable_traitsILb0ELb0ELb1EEELb1EEixEOi@Qt_6 6.6.0
 (optional=templinst)_ZNSt8__detail9_Map_baseIiSt4pairIKiNSt7__cxx1112basic_stringIcSt11char_traitsIcESaIcEEEESaIS9_ENS_10_Select1stESt8equal_toIiESt4hashIiENS_18_Mod_range_hashingENS_20_Default_ranged_hashENS_20_Prime_rehash_policyENS_17_Hashtable_traitsILb0ELb0ELb1EEELb1EEixERS2_@Qt_6 6.6.0
 (optional=templinst)_ZNSt8__detail9_Map_baseIiSt4pairIKiSt6vectorIiSaIiEEESaIS6_ENS_10_Select1stESt8equal_toIiESt4hashIiENS_18_Mod_range_hashingENS_20_Default_ranged_hashENS_20_Prime_rehash_policyENS_17_Hashtable_traitsILb0ELb0ELb1EEELb1EEixERS2_@Qt_6 6.6.0
 (optional=templinst)_ZNSt8__detail9_Map_baseIiSt4pairIKiiESaIS3_ENS_10_Select1stESt8equal_toIiESt4hashIiENS_18_Mod_range_hashingENS_20_Default_ranged_hashENS_20_Prime_rehash_policyENS_17_Hashtable_traitsILb0ELb0ELb1EEELb1EEixERS2_@Qt_6 6.6.0
 (optional=templinst)_ZNSt8__detail9_Map_baseIiSt4pairIKijESaIS3_ENS_10_Select1stESt8equal_toIiESt4hashIiENS_18_Mod_range_hashingENS_20_Default_ranged_hashENS_20_Prime_rehash_policyENS_17_Hashtable_traitsILb0ELb0ELb1EEELb1EEixEOi@Qt_6 6.6.0
 (optional=templinst)_ZNSt8__detail9_Map_baseIjSt4pairIKjiESaIS3_ENS_10_Select1stESt8equal_toIjESt4hashIjENS_18_Mod_range_hashingENS_20_Default_ranged_hashENS_20_Prime_rehash_policyENS_17_Hashtable_traitsILb0ELb0ELb1EEELb1EEixERS2_@Qt_6 6.6.0
 (optional=templinst)_ZNSt8__detail9_Map_baseIjSt4pairIKjjESaIS3_ENS_10_Select1stESt8equal_toIjESt4hashIjENS_18_Mod_range_hashingENS_20_Default_ranged_hashENS_20_Prime_rehash_policyENS_17_Hashtable_traitsILb0ELb0ELb1EEELb1EEixERS2_@Qt_6 6.6.0
 (optional=templinst)_ZNSt8__detail9_Map_baseIjSt4pairIKjmESaIS3_ENS_10_Select1stESt8equal_toIjESt4hashIjENS_18_Mod_range_hashingENS_20_Default_ranged_hashENS_20_Prime_rehash_policyENS_17_Hashtable_traitsILb0ELb0ELb1EEELb1EEixERS2_@Qt_6 6.6.0
 (optional=templinst)_ZNSt8__detail9_Map_baseIlSt4pairIKlmESaIS3_ENS_10_Select1stESt8equal_toIlESt4hashIlENS_18_Mod_range_hashingENS_20_Default_ranged_hashENS_20_Prime_rehash_policyENS_17_Hashtable_traitsILb0ELb0ELb1EEELb1EEixERS2_@Qt_6 6.6.0
 (optional=templinst)_ZNSt8__detail9_Map_baseImSt4pairIKmPvESaIS4_ENS_10_Select1stESt8equal_toImESt4hashImENS_18_Mod_range_hashingENS_20_Default_ranged_hashENS_20_Prime_rehash_policyENS_17_Hashtable_traitsILb0ELb0ELb1EEELb1EEixEOm@Qt_6 6.6.0
 _ZNSt8__detail9_Map_baseImSt4pairIKmSt10unique_ptrIA_cSt14default_deleteIS4_EEESaIS8_ENS_10_Select1stESt8equal_toImESt4hashImENS_18_Mod_range_hashingENS_20_Default_ranged_hashENS_20_Prime_rehash_policyENS_17_Hashtable_traitsILb0ELb0ELb1EEELb1EEixERS2_@Qt_6 6.6.0
 (optional=templinst)_ZNSt8__detail9_Map_baseImSt4pairIKmiESaIS3_ENS_10_Select1stESt8equal_toImESt4hashImENS_18_Mod_range_hashingENS_20_Default_ranged_hashENS_20_Prime_rehash_policyENS_17_Hashtable_traitsILb0ELb0ELb1EEELb1EEixEOm@Qt_6 6.6.0
 (optional=templinst)_ZNSt8__detail9_Map_baseImSt4pairIKmiESaIS3_ENS_10_Select1stESt8equal_toImESt4hashImENS_18_Mod_range_hashingENS_20_Default_ranged_hashENS_20_Prime_rehash_policyENS_17_Hashtable_traitsILb0ELb0ELb1EEELb1EEixERS2_@Qt_6 6.6.0
 (optional=templinst)_ZNSt8__detail9_Map_baseImSt4pairIKmjESaIS3_ENS_10_Select1stESt8equal_toImESt4hashImENS_18_Mod_range_hashingENS_20_Default_ranged_hashENS_20_Prime_rehash_policyENS_17_Hashtable_traitsILb0ELb0ELb1EEELb1EEixERS2_@Qt_6 6.6.0
 (optional=templinst)_ZNSt8__detail9_Map_baseImSt4pairIKmmESaIS3_ENS_10_Select1stESt8equal_toImESt4hashImENS_18_Mod_range_hashingENS_20_Default_ranged_hashENS_20_Prime_rehash_policyENS_17_Hashtable_traitsILb0ELb0ELb1EEELb1EEixERS2_@Qt_6 6.6.0
 (optional=templinst)_ZNSt8__detail9_StateSeqINSt7__cxx1112regex_traitsIcEEE8_M_cloneEv@Qt_6 6.6.0
 (optional=templinst)_ZNSt8seed_seqC1IPjEET_S2_@Qt_6 6.6.0
 (optional=templinst)_ZNSt8seed_seqC2IPjEET_S2_@Qt_6 6.6.0
 (optional=templinst)_ZSt14__copy_move_a1ILb0EPN3net19HostResolverManager8TaskTypeES2_EN9__gnu_cxx11__enable_ifIXsrSt23__is_random_access_iterIT0_NSt15iterator_traitsIS7_E17iterator_categoryEE7__valueESt15_Deque_iteratorIT1_RSD_PSD_EE6__typeES7_S7_SG_@Qt_6 6.6.0
 (optional=templinst)_ZSt14__copy_move_a1ILb1EPN3net19HostResolverManager8TaskTypeES2_EN9__gnu_cxx11__enable_ifIXsrSt23__is_random_access_iterIT0_NSt15iterator_traitsIS7_E17iterator_categoryEE7__valueESt15_Deque_iteratorIT1_RSD_PSD_EE6__typeES7_S7_SG_@Qt_6 6.6.0
 (optional=templinst)_ZSt14__copy_move_a1ILb1EPSt4pairIliES1_EN9__gnu_cxx11__enable_ifIXsrSt23__is_random_access_iterIT0_NSt15iterator_traitsIS6_E17iterator_categoryEE7__valueESt15_Deque_iteratorIT1_RSC_PSC_EE6__typeES6_S6_SF_@Qt_6 6.6.0
 (optional=templinst)_ZSt17__rotate_adaptiveIN9__gnu_cxx17__normal_iteratorIPSt4pairIN17url_pattern_index5proto11ElementTypeENS3_4flat11ElementTypeEESt6vectorIS8_SaIS8_EEEES9_lET_SE_SE_SE_T1_SF_T0_SF_@Qt_6 6.6.0
 (optional=templinst)_ZSt17__rotate_adaptiveIN9__gnu_cxx17__normal_iteratorIPSt4pairIN17url_pattern_index5proto14ActivationTypeENS3_4flat14ActivationTypeEESt6vectorIS8_SaIS8_EEEES9_lET_SE_SE_SE_T1_SF_T0_SF_@Qt_6 6.6.0
 (optional=templinst)_ZSt17__rotate_adaptiveIN9__gnu_cxx17__normal_iteratorIPSt4pairIN2ui11NativeTheme16SystemThemeColorEjESt6vectorIS6_SaIS6_EEEES7_lET_SC_SC_SC_T1_SD_T0_SD_@Qt_6 6.6.0
 (optional=templinst)_ZSt17__rotate_adaptiveIN9__gnu_cxx17__normal_iteratorIPSt4pairIN7network5mojom18WebClientHintsTypeEN5blink5mojom24PermissionsPolicyFeatureEESt6vectorIS9_SaIS9_EEEESA_lET_SF_SF_SF_T1_SG_T0_SG_@Qt_6 6.6.0
 (optional=templinst)_ZSt17__rotate_adaptiveIN9__gnu_cxx17__normal_iteratorIPSt4pairISt6bitsetILm8EEiESt6vectorIS5_SaIS5_EEEES6_lET_SB_SB_SB_T1_SC_T0_SC_@Qt_6 6.6.0
 (optional=templinst)_ZSt17__rotate_adaptiveIN9__gnu_cxx17__normal_iteratorIPSt4pairIijESt6vectorIS3_SaIS3_EEEES4_lET_S9_S9_S9_T1_SA_T0_SA_@Qt_6 6.6.0
 (optional=templinst)_ZSt17__rotate_adaptiveIN9__gnu_cxx17__normal_iteratorIPSt4pairIimESt6vectorIS3_SaIS3_EEEES4_lET_S9_S9_S9_T1_SA_T0_SA_@Qt_6 6.6.0
 (optional=templinst)_ZSt17__rotate_adaptiveIN9__gnu_cxx17__normal_iteratorIPSt4pairImiESt6vectorIS3_SaIS3_EEEES4_lET_S9_S9_S9_T1_SA_T0_SA_@Qt_6 6.6.0
 (optional=templinst)_ZSt17__rotate_adaptiveIN9__gnu_cxx17__normal_iteratorIPSt4pairImlESt6vectorIS3_SaIS3_EEEES4_lET_S9_S9_S9_T1_SA_T0_SA_@Qt_6 6.6.0
 (optional=templinst)_ZSt17__rotate_adaptiveIN9__gnu_cxx17__normal_iteratorIPjSt6vectorIjSaIjEEEES2_lET_S7_S7_S7_T1_S8_T0_S8_@Qt_6 6.6.0
 (optional=templinst)_ZSt17__rotate_adaptiveIPSt4pairItDsES2_lET_S3_S3_S3_T1_S4_T0_S4_@Qt_6 6.6.0
 (optional=templinst)_ZSt18generate_canonicalIdLm53ESt23mersenne_twister_engineImLm32ELm624ELm397ELm31ELm2567483615ELm11ELm4294967295ELm7ELm2636928640ELm15ELm4022730752ELm18ELm1812433253EEET_RT1_@Qt_6 6.6.0
 _ZSt19piecewise_construct@Qt_6 6.6.0
 (optional=templinst)_ZSt23__copy_move_backward_a1ILb1EPN3net19HostResolverManager8TaskTypeES2_EN9__gnu_cxx11__enable_ifIXsrSt23__is_random_access_iterIT0_NSt15iterator_traitsIS7_E17iterator_categoryEE7__valueESt15_Deque_iteratorIT1_RSD_PSD_EE6__typeES7_S7_SG_@Qt_6 6.6.0
 (optional=templinst)_ZSt23__copy_move_backward_a1ILb1EPSt4pairIliES1_EN9__gnu_cxx11__enable_ifIXsrSt23__is_random_access_iterIT0_NSt15iterator_traitsIS6_E17iterator_categoryEE7__valueESt15_Deque_iteratorIT1_RSC_PSC_EE6__typeES6_S6_SF_@Qt_6 6.6.0
 (optional=templinst)_ZSt23__copy_move_backward_a1ILb1EPiiEN9__gnu_cxx11__enable_ifIXsrSt23__is_random_access_iterIT0_NSt15iterator_traitsIS4_E17iterator_categoryEE7__valueESt15_Deque_iteratorIT1_RSA_PSA_EE6__typeES4_S4_SD_@Qt_6 6.6.0
 (optional=templinst)_ZStlsIcSt11char_traitsIcELm64EERSt13basic_ostreamIT_T0_ES6_RKSt6bitsetIXT1_EE@Qt_6 6.6.0
 _ZTI14QWebEnginePage@Qt_6 6.6.0
 _ZTI17QWebEngineHistory@Qt_6 6.6.0
 _ZTI17QWebEngineProfile@Qt_6 6.6.0
 _ZTI21QWebEngineCookieStore@Qt_6 6.6.0
 _ZTI22QWebEngineHistoryModel@Qt_6 6.6.0
 _ZTI22QWebEngineNotification@Qt_6 6.6.0
 _ZTI23QWebEngineUrlRequestJob@Qt_6 6.6.0
 _ZTI25QWebEngineDownloadRequest@Qt_6 6.6.0
 _ZTI26QWebEngineNewWindowRequest@Qt_6 6.6.0
 _ZTI26QWebEngineUrlSchemeHandler@Qt_6 6.6.0
 _ZTI27QWebEngineNavigationRequest@Qt_6 6.6.0
 _ZTI28QWebEngineContextMenuRequest@Qt_6 6.6.0
 _ZTI31QWebEngineUrlRequestInterceptor@Qt_6 6.6.0
 _ZTIN15QtWebEngineCore20ProfileAdapterClientE@Qt_6 6.6.0
 _ZTIN15QtWebEngineCore24WebContentsAdapterClientE@Qt_6 6.6.0
 _ZTIN15QtWebEngineCore26UserNotificationController6ClientE@Qt_6 6.6.0
 _ZTS14QWebEnginePage@Qt_6 6.6.0
 _ZTS17QWebEngineHistory@Qt_6 6.6.0
 _ZTS17QWebEngineProfile@Qt_6 6.6.0
 _ZTS21QWebEngineCookieStore@Qt_6 6.6.0
 _ZTS22QWebEngineHistoryModel@Qt_6 6.6.0
 _ZTS22QWebEngineNotification@Qt_6 6.6.0
 _ZTS23QWebEngineUrlRequestJob@Qt_6 6.6.0
 _ZTS25QWebEngineDownloadRequest@Qt_6 6.6.0
 _ZTS26QWebEngineNewWindowRequest@Qt_6 6.6.0
 _ZTS26QWebEngineUrlSchemeHandler@Qt_6 6.6.0
 _ZTS27QWebEngineNavigationRequest@Qt_6 6.6.0
 _ZTS28QWebEngineContextMenuRequest@Qt_6 6.6.0
 _ZTS31QWebEngineUrlRequestInterceptor@Qt_6 6.6.0
 _ZTSN15QtWebEngineCore20ProfileAdapterClientE@Qt_6 6.6.0
 _ZTSN15QtWebEngineCore24WebContentsAdapterClientE@Qt_6 6.6.0
 _ZTSN15QtWebEngineCore26UserNotificationController6ClientE@Qt_6 6.6.0
 _ZTV14QWebEnginePage@Qt_6 6.6.0
 _ZTV17QWebEngineHistory@Qt_6 6.6.0
 _ZTV17QWebEngineProfile@Qt_6 6.6.0
 _ZTV21QWebEngineCookieStore@Qt_6 6.6.0
 _ZTV22QWebEngineHistoryModel@Qt_6 6.6.0
 _ZTV22QWebEngineNotification@Qt_6 6.6.0
 _ZTV23QWebEngineUrlRequestJob@Qt_6 6.6.0
 _ZTV25QWebEngineDownloadRequest@Qt_6 6.6.0
 _ZTV26QWebEngineNewWindowRequest@Qt_6 6.6.0
 _ZTV26QWebEngineUrlSchemeHandler@Qt_6 6.6.0
 _ZTV27QWebEngineNavigationRequest@Qt_6 6.6.0
 _ZTV28QWebEngineContextMenuRequest@Qt_6 6.6.0
 _ZTV31QWebEngineUrlRequestInterceptor@Qt_6 6.6.0
 _ZTVN15QtWebEngineCore10Compositor8ObserverE@Qt_6 6.6.0
 _ZTVN15QtWebEngineCore10CompositorE@Qt_6 6.6.0
 _ZTVN15QtWebEngineCore13PrinterWorkerE@Qt_6 6.6.0
 _ZTVN15QtWebEngineCore14ProfileAdapterE@Qt_6 6.6.0
 _ZTVN15QtWebEngineCore20FilePickerControllerE@Qt_6 6.6.0
 _ZTVN15QtWebEngineCore21VisitedLinksManagerQtE@Qt_6 6.6.0
 _ZTVN15QtWebEngineCore22ColorChooserControllerE@Qt_6 6.6.0
 _ZTVN15QtWebEngineCore23AutofillPopupControllerE@Qt_6 6.6.0
 _ZTVN15QtWebEngineCore23PdfiumDocumentWrapperQtE@Qt_6 6.6.0
 _ZTVN15QtWebEngineCore23RenderViewContextMenuQtE@Qt_6 6.6.0
 _ZTVN15QtWebEngineCore26JavaScriptDialogControllerE@Qt_6 6.6.0
 _ZTVN15QtWebEngineCore26UserResourceControllerHost25WebContentsObserverHelperE@Qt_6 6.6.0
 _ZTVN15QtWebEngineCore26UserResourceControllerHost27RenderProcessObserverHelperE@Qt_6 6.6.0
 _ZTVN15QtWebEngineCore27URLRequestCustomJobDelegateE@Qt_6 6.6.0
 _ZTVN15QtWebEngineCore28TouchSelectionMenuControllerE@Qt_6 6.6.0
 _ZTVN15QtWebEngineCore30AuthenticationDialogControllerE@Qt_6 6.6.0
 _ZTVN15QtWebEngineCore34RenderWidgetHostViewQtDelegateItemE@Qt_6 6.6.0
 _ZTVNSt6thread11_State_implINS_8_InvokerISt5tupleIJMN2rx2vk16CommandProcessorEFvvEPS5_EEEEEE@Qt_6 6.6.0
 _ZTVNSt6thread11_State_implINS_8_InvokerISt5tupleIJMN5angle15AsyncWorkerPoolEFvvEPS4_EEEEEE@Qt_6 6.6.0
 _ZTVNSt6thread11_State_implINS_8_InvokerISt5tupleIJMN8perfetto4base16ThreadTaskRunnerEFvSt8functionIFvPNS4_14UnixTaskRunnerEEEEPS5_SA_EEEEEE@Qt_6 6.6.0
 _ZTVNSt6thread11_State_implINS_8_InvokerISt5tupleIJPFvPvEP12SkThreadPoolI8SkTArrayISt8functionIFvvEELb0EEEEEEEEE@Qt_6 6.6.0
 _ZTVNSt6thread11_State_implINS_8_InvokerISt5tupleIJPFvPvEP12SkThreadPoolISt5dequeISt8functionIFvvEESaISA_EEEEEEEEE@Qt_6 6.6.0
 _ZTVNSt6thread11_State_implINS_8_InvokerISt5tupleIJPFviEiEEEEEE@Qt_6 6.6.0
 _ZTVNSt6thread11_State_implINS_8_InvokerISt5tupleIJZN15partition_alloc8internal6PCScan12PCScanThreadC4EvEUlPS6_E_S7_EEEEEE@Qt_6 6.6.0
 _ZTVSt15_Sp_counted_ptrIPSt6vectorIcSaIcEELN9__gnu_cxx12_Lock_policyE2EE@Qt_6 6.6.0
 _ZTVSt15_Sp_counted_ptrIPSt6vectorIhSaIhEELN9__gnu_cxx12_Lock_policyE2EE@Qt_6 6.6.0
 _ZTVSt19_Sp_counted_deleterIPcSt14default_deleteIA_cESaIvELN9__gnu_cxx12_Lock_policyE2EE@Qt_6 6.6.0
 _ZTVSt23_Sp_counted_ptr_inplaceINSt7__cxx1112basic_stringIcSt11char_traitsIcESaIcEEESaIvELN9__gnu_cxx12_Lock_policyE2EE@Qt_6 6.6.0
 _ZTVSt23_Sp_counted_ptr_inplaceINSt8__detail4_NFAINSt7__cxx1112regex_traitsIcEEEESaIvELN9__gnu_cxx12_Lock_policyE2EE@Qt_6 6.6.0
 _ZTVSt23_Sp_counted_ptr_inplaceISt6atomicIbESaIvELN9__gnu_cxx12_Lock_policyE2EE@Qt_6 6.6.0
 _ZTVSt23_Sp_counted_ptr_inplaceISt6vectorIhSaIhEESaIvELN9__gnu_cxx12_Lock_policyE2EE@Qt_6 6.6.0
 _ZTVSt23_Sp_counted_ptr_inplaceIbSaIvELN9__gnu_cxx12_Lock_policyE2EE@Qt_6 6.6.0
 (optional=templinst)_ZZN9QMetaType21registerConverterImplI5QListI4QUrlE9QIterableI13QMetaSequenceEEEbSt8functionIFbPKvPvEES_S_E10unregister@Qt_6 6.6.0
 (optional=templinst)_ZZN9QMetaType23registerMutableViewImplI5QListI4QUrlE9QIterableI13QMetaSequenceEEEbSt8functionIFbPvS8_EES_S_E10unregister@Qt_6 6.6.0
 (optional=templinst)_ZZNKSt7__cxx1112regex_traitsIcE16lookup_classnameIPKcEENS1_10_RegexMaskET_S6_bE12__classnames@Qt_6 6.6.0
 (optional=templinst)_ZZNKSt7__cxx1112regex_traitsIcE18lookup_collatenameIPKcEENS_12basic_stringIcSt11char_traitsIcESaIcEEET_SA_E14__collatenames@Qt_6 6.6.0
 (optional=templinst)_ZZNKSt8__detail11_AnyMatcherINSt7__cxx1112regex_traitsIcEELb0ELb0ELb0EEclEcE5__nul@Qt_6 6.6.0
 (optional=templinst)_ZZNKSt8__detail11_AnyMatcherINSt7__cxx1112regex_traitsIcEELb0ELb0ELb1EEclEcE5__nul@Qt_6 6.6.0
 (optional=templinst)_ZZNKSt8__detail11_AnyMatcherINSt7__cxx1112regex_traitsIcEELb0ELb1ELb0EEclEcE5__nul@Qt_6 6.6.0
 (optional=templinst)_ZZNKSt8__detail11_AnyMatcherINSt7__cxx1112regex_traitsIcEELb0ELb1ELb1EEclEcE5__nul@Qt_6 6.6.0
 (optional=templinst)_ZZNKSt8__detail9_ExecutorIN9__gnu_cxx17__normal_iteratorIPKcNSt7__cxx1112basic_stringIcSt11char_traitsIcESaIcEEEEESaINS5_9sub_matchISB_EEENS5_12regex_traitsIcEELb0EE10_M_is_wordEcE3__s@Qt_6 6.6.0
 (optional=templinst)_ZZNKSt8__detail9_ExecutorIN9__gnu_cxx17__normal_iteratorIPKcNSt7__cxx1112basic_stringIcSt11char_traitsIcESaIcEEEEESaINS5_9sub_matchISB_EEENS5_12regex_traitsIcEELb1EE10_M_is_wordEcE3__s@Qt_6 6.6.0
 _ZZNSt19_Sp_make_shared_tag5_S_tiEvE5__tag@Qt_6 6.6.0
 _Zls6QDebugRK16QWebEngineScript@Qt_6 6.6.0
 _ZlsR11QDataStreamRK17QWebEngineHistory@Qt_6 6.6.0
 _ZrsR11QDataStreamR17QWebEngineHistory@Qt_6 6.6.0
 close@Qt_6 6.6.0
 (c++)"non-virtual thunk to QtWebEngineCore::RenderWidgetHostViewQtDelegateItem::Window() const@Qt_6" 6.6.0
 (c++)"non-virtual thunk to QtWebEngineCore::RenderWidgetHostViewQtDelegateItem::adapterClientChanged(QtWebEngineCore::WebContentsAdapterClient*)@Qt_6" 6.6.0
 (c++)"non-virtual thunk to QtWebEngineCore::RenderWidgetHostViewQtDelegateItem::hasKeyboardFocus()@Qt_6" 6.6.0
 (c++)"non-virtual thunk to QtWebEngineCore::RenderWidgetHostViewQtDelegateItem::hide()@Qt_6" 6.6.0
 (c++)"non-virtual thunk to QtWebEngineCore::RenderWidgetHostViewQtDelegateItem::initAsPopup(QRect const&)@Qt_6" 6.6.0
 (c++)"non-virtual thunk to QtWebEngineCore::RenderWidgetHostViewQtDelegateItem::inputMethodStateChanged(bool, bool)@Qt_6" 6.6.0
 (c++)"non-virtual thunk to QtWebEngineCore::RenderWidgetHostViewQtDelegateItem::isVisible() const@Qt_6" 6.6.0
 (c++)"non-virtual thunk to QtWebEngineCore::RenderWidgetHostViewQtDelegateItem::lockMouse()@Qt_6" 6.6.0
 (c++)"non-virtual thunk to QtWebEngineCore::RenderWidgetHostViewQtDelegateItem::move(QPoint const&)@Qt_6" 6.6.0
 (c++)"non-virtual thunk to QtWebEngineCore::RenderWidgetHostViewQtDelegateItem::readyToSwap()@Qt_6" 6.6.0
 (c++)"non-virtual thunk to QtWebEngineCore::RenderWidgetHostViewQtDelegateItem::resize(int, int)@Qt_6" 6.6.0
 (c++)"non-virtual thunk to QtWebEngineCore::RenderWidgetHostViewQtDelegateItem::setClearColor(QColor const&)@Qt_6" 6.6.0
 (c++)"non-virtual thunk to QtWebEngineCore::RenderWidgetHostViewQtDelegateItem::setInputMethodHints(QFlags<Qt::InputMethodHint>)@Qt_6" 6.6.0
 (c++)"non-virtual thunk to QtWebEngineCore::RenderWidgetHostViewQtDelegateItem::setKeyboardFocus()@Qt_6" 6.6.0
 (c++)"non-virtual thunk to QtWebEngineCore::RenderWidgetHostViewQtDelegateItem::show()@Qt_6" 6.6.0
 (c++)"non-virtual thunk to QtWebEngineCore::RenderWidgetHostViewQtDelegateItem::unhandledWheelEvent(QWheelEvent*)@Qt_6" 6.6.0
 (c++)"non-virtual thunk to QtWebEngineCore::RenderWidgetHostViewQtDelegateItem::unlockMouse()@Qt_6" 6.6.0
 (c++)"non-virtual thunk to QtWebEngineCore::RenderWidgetHostViewQtDelegateItem::updateAdapterClientIfNeeded(QtWebEngineCore::WebContentsAdapterClient*)@Qt_6" 6.6.0
 (c++)"non-virtual thunk to QtWebEngineCore::RenderWidgetHostViewQtDelegateItem::updateCursor(QCursor const&)@Qt_6" 6.6.0
 (c++)"non-virtual thunk to QtWebEngineCore::RenderWidgetHostViewQtDelegateItem::viewGeometry() const@Qt_6" 6.6.0
 (c++)"non-virtual thunk to QtWebEngineCore::RenderWidgetHostViewQtDelegateItem::windowGeometry() const@Qt_6" 6.6.0
 (c++)"non-virtual thunk to QtWebEngineCore::RenderWidgetHostViewQtDelegateItem::~RenderWidgetHostViewQtDelegateItem()@Qt_6" 6.6.0
