# SymbolsHelper-Confirmed: 6.4.1 amd64
libQt6WebEngineQuick.so.6 libqt6webenginequick6 #MINVER#
| libqt6webenginequick6 #MINVER#, qt6-webengine-abi (= 6.4.2)
* Build-Depends-Package: qt6-webengine-dev
 _Z30qml_register_types_QtWebEnginev@Base 6.2.2
 _ZGVZN9QMetaType21registerConverterImplI5QListI16QWebEngineScriptE9QIterableI13QMetaSequenceEEEbSt8functionIFbPKvPvEES_S_E10unregister@Base 6.2.2
 _ZGVZN9QMetaType21registerConverterImplI5QListI22QWebEngineQuotaRequestE9QIterableI13QMetaSequenceEEEbSt8functionIFbPKvPvEES_S_E10unregister@Base 6.4.0
 _ZGVZN9QMetaType21registerConverterImplI5QListI24QWebEngineFindTextResultE9QIterableI13QMetaSequenceEEEbSt8functionIFbPKvPvEES_S_E10unregister@Base 6.4.0
 _ZGVZN9QMetaType21registerConverterImplI5QListI26QWebEngineCertificateErrorE9QIterableI13QMetaSequenceEEEbSt8functionIFbPKvPvEES_S_E10unregister@Base 6.4.0
 _ZGVZN9QMetaType21registerConverterImplI5QListI40QWebEngineRegisterProtocolHandlerRequestE9QIterableI13QMetaSequenceEEEbSt8functionIFbPKvPvEES_S_E10unregister@Base 6.4.0
 _ZGVZN9QMetaType23registerMutableViewImplI5QListI16QWebEngineScriptE9QIterableI13QMetaSequenceEEEbSt8functionIFbPvS8_EES_S_E10unregister@Base 6.2.2
 _ZGVZN9QMetaType23registerMutableViewImplI5QListI22QWebEngineQuotaRequestE9QIterableI13QMetaSequenceEEEbSt8functionIFbPvS8_EES_S_E10unregister@Base 6.4.0
 _ZGVZN9QMetaType23registerMutableViewImplI5QListI24QWebEngineFindTextResultE9QIterableI13QMetaSequenceEEEbSt8functionIFbPvS8_EES_S_E10unregister@Base 6.4.0
 _ZGVZN9QMetaType23registerMutableViewImplI5QListI26QWebEngineCertificateErrorE9QIterableI13QMetaSequenceEEEbSt8functionIFbPvS8_EES_S_E10unregister@Base 6.4.0
 _ZGVZN9QMetaType23registerMutableViewImplI5QListI40QWebEngineRegisterProtocolHandlerRequestE9QIterableI13QMetaSequenceEEEbSt8functionIFbPvS8_EES_S_E10unregister@Base 6.4.0
 _ZN13QMetaSequence12MetaSequenceI5QListI16QWebEngineScriptEE5valueE@Base 6.2.2
 _ZN13QMetaSequence12MetaSequenceI5QListI21QWebEngineLoadingInfoEE5valueE@Base 6.4.0
 _ZN13QMetaSequence12MetaSequenceI5QListI22QWebEngineQuotaRequestEE5valueE@Base 6.4.0
 _ZN13QMetaSequence12MetaSequenceI5QListI24QWebEngineFindTextResultEE5valueE@Base 6.4.0
 _ZN13QMetaSequence12MetaSequenceI5QListI26QWebEngineCertificateErrorEE5valueE@Base 6.4.0
 _ZN13QMetaSequence12MetaSequenceI5QListI27QWebEngineFullScreenRequestEE5valueE@Base 6.4.0
 _ZN13QMetaSequence12MetaSequenceI5QListI40QWebEngineRegisterProtocolHandlerRequestEE5valueE@Base 6.4.0
 _ZN16QtWebEngineQuick10initializeEv@Base 6.2.2
 _ZN19QQuickWebEngineView10itemChangeEN10QQuickItem10ItemChangeERKNS0_14ItemChangeDataE@Base 6.2.2
 _ZN19QQuickWebEngineView10printToPdfERK7QStringNS_17PrintedPageSizeIdENS_22PrintedPageOrientationE@Base 6.2.2
 _ZN19QQuickWebEngineView10printToPdfERK8QJSValueNS_17PrintedPageSizeIdENS_22PrintedPageOrientationE@Base 6.2.2
 _ZN19QQuickWebEngineView10setProfileEP22QQuickWebEngineProfile@Base 6.2.2
 _ZN19QQuickWebEngineView10urlChangedEv@Base 6.2.2
 _ZN19QQuickWebEngineView10webChannelEv@Base 6.2.2
 _ZN19QQuickWebEngineView11iconChangedEv@Base 6.2.2
 _ZN19QQuickWebEngineView11linkHoveredERK4QUrl@Base 6.2.2
 _ZN19QQuickWebEngineView11qt_metacallEN11QMetaObject4CallEiPPv@Base 6.2.2
 _ZN19QQuickWebEngineView11qt_metacastEPKc@Base 6.2.2
 _ZN19QQuickWebEngineView11userScriptsEv@Base 6.2.2
 _ZN19QQuickWebEngineView12titleChangedEv@Base 6.2.2
 _ZN19QQuickWebEngineView13dragMoveEventEP14QDragMoveEvent@Base 6.2.2
 _ZN19QQuickWebEngineView13runJavaScriptERK7QStringRK8QJSValue@Base 6.2.2
 _ZN19QQuickWebEngineView13runJavaScriptERK7QStringjRK8QJSValue@Base 6.2.2
 _ZN19QQuickWebEngineView13setAudioMutedEb@Base 6.2.2
 _ZN19QQuickWebEngineView13setWebChannelEP14QQmlWebChannel@Base 6.2.2
 _ZN19QQuickWebEngineView13setZoomFactorEd@Base 6.2.2
 _ZN19QQuickWebEngineView14dragEnterEventEP15QDragEnterEvent@Base 6.2.2
 _ZN19QQuickWebEngineView14dragLeaveEventEP15QDragLeaveEvent@Base 6.2.2
 _ZN19QQuickWebEngineView14geometryChangeERK6QRectFS2_@Base 6.2.2
 _ZN19QQuickWebEngineView14lazyInitializeEv@Base 6.2.2
 _ZN19QQuickWebEngineView14loadingChangedERK21QWebEngineLoadingInfo@Base 6.2.2
 _ZN19QQuickWebEngineView14printRequestedEv@Base 6.2.2
 _ZN19QQuickWebEngineView14profileChangedEv@Base 6.2.2
 _ZN19QQuickWebEngineView14quotaRequestedERK22QWebEngineQuotaRequest@Base 6.2.2
 _ZN19QQuickWebEngineView15goBackOrForwardEi@Base 6.2.2
 _ZN19QQuickWebEngineView15setDevToolsViewEPS_@Base 6.2.2
 _ZN19QQuickWebEngineView16canGoBackChangedEv@Base 6.2.2
 _ZN19QQuickWebEngineView16certificateErrorERK26QWebEngineCertificateError@Base 6.2.2
 _ZN19QQuickWebEngineView16findTextFinishedERK24QWebEngineFindTextResult@Base 6.2.2
 _ZN19QQuickWebEngineView16setInspectedViewEPS_@Base 6.2.2
 _ZN19QQuickWebEngineView16staticMetaObjectE@Base 6.2.2
 _ZN19QQuickWebEngineView16tooltipRequestedEP29QQuickWebEngineTooltipRequest@Base 6.2.2
 _ZN19QQuickWebEngineView16triggerWebActionENS_9WebActionE@Base 6.2.2
 _ZN19QQuickWebEngineView17acceptAsNewWindowEP26QWebEngineNewWindowRequest@Base 6.2.2
 _ZN19QQuickWebEngineView17audioMutedChangedEb@Base 6.2.2
 _ZN19QQuickWebEngineView17componentCompleteEv@Base 6.2.2
 _ZN19QQuickWebEngineView17setLifecycleStateENS_14LifecycleStateE@Base 6.2.2
 _ZN19QQuickWebEngineView17webChannelChangedEv@Base 6.2.2
 _ZN19QQuickWebEngineView17zoomFactorChangedEd@Base 6.2.2
 _ZN19QQuickWebEngineView18newWindowRequestedEP31QQuickWebEngineNewWindowRequest@Base 6.2.2
 _ZN19QQuickWebEngineView18setBackgroundColorERK6QColor@Base 6.2.2
 _ZN19QQuickWebEngineView18setWebChannelWorldEj@Base 6.2.2
 _ZN19QQuickWebEngineView19canGoForwardChangedEv@Base 6.2.2
 _ZN19QQuickWebEngineView19contentsSizeChangedERK6QSizeF@Base 6.2.2
 _ZN19QQuickWebEngineView19devToolsViewChangedEv@Base 6.2.2
 _ZN19QQuickWebEngineView19fileDialogRequestedEP32QQuickWebEngineFileDialogRequest@Base 6.2.2
 _ZN19QQuickWebEngineView19fullScreenCancelledEv@Base 6.2.2
 _ZN19QQuickWebEngineView19fullScreenRequestedERK27QWebEngineFullScreenRequest@Base 6.2.2
 _ZN19QQuickWebEngineView19isFullScreenChangedEv@Base 6.2.2
 _ZN19QQuickWebEngineView19loadProgressChangedEv@Base 6.2.2
 _ZN19QQuickWebEngineView19navigationRequestedEP27QWebEngineNavigationRequest@Base 6.2.2
 _ZN19QQuickWebEngineView19pdfPrintingFinishedERK7QStringb@Base 6.2.2
 _ZN19QQuickWebEngineView20colorDialogRequestedEP33QQuickWebEngineColorDialogRequest@Base 6.2.2
 _ZN19QQuickWebEngineView20contextMenuRequestedEP28QWebEngineContextMenuRequest@Base 6.2.2
 _ZN19QQuickWebEngineView20inspectedViewChangedEv@Base 6.2.2
 _ZN19QQuickWebEngineView20reloadAndBypassCacheEv@Base 6.2.2
 _ZN19QQuickWebEngineView20windowCloseRequestedEv@Base 6.2.2
 _ZN19QQuickWebEngineView21lifecycleStateChangedENS_14LifecycleStateE@Base 6.2.2
 _ZN19QQuickWebEngineView21replaceMisspelledWordERK7QString@Base 6.2.2
 _ZN19QQuickWebEngineView21scrollPositionChangedERK7QPointF@Base 6.2.2
 _ZN19QQuickWebEngineView21setActiveFocusOnPressEb@Base 6.2.2
 _ZN19QQuickWebEngineView22backgroundColorChangedEv@Base 6.2.2
 _ZN19QQuickWebEngineView22grantFeaturePermissionERK4QUrlNS_7FeatureEb@Base 6.2.2
 _ZN19QQuickWebEngineView22recentlyAudibleChangedEb@Base 6.2.2
 _ZN19QQuickWebEngineView22setTouchHandleDelegateEP13QQmlComponent@Base 6.4.0
 _ZN19QQuickWebEngineView22webChannelWorldChangedEj@Base 6.2.2
 _ZN19QQuickWebEngineView23geometryChangeRequestedERK5QRectS2_@Base 6.2.2
 _ZN19QQuickWebEngineView23recommendedStateChangedENS_14LifecycleStateE@Base 6.2.2
 _ZN19QQuickWebEngineView23renderProcessPidChangedEx@Base 6.2.2
 _ZN19QQuickWebEngineView23renderProcessTerminatedENS_30RenderProcessTerminationStatusEi@Base 6.2.2
 _ZN19QQuickWebEngineView23selectClientCertificateEP41QQuickWebEngineClientCertificateSelection@Base 6.2.2
 _ZN19QQuickWebEngineView24javaScriptConsoleMessageENS_29JavaScriptConsoleMessageLevelERK7QStringiS3_@Base 6.2.2
 _ZN19QQuickWebEngineView25activeFocusOnPressChangedEb@Base 6.2.2
 _ZN19QQuickWebEngineView25fileSystemAccessRequestedERK33QWebEngineFileSystemAccessRequest@Base 6.4.0
 _ZN19QQuickWebEngineView25javaScriptDialogRequestedEP38QQuickWebEngineJavaScriptDialogRequest@Base 6.2.2
 _ZN19QQuickWebEngineView26featurePermissionRequestedERK4QUrlNS_7FeatureE@Base 6.2.2
 _ZN19QQuickWebEngineView26touchHandleDelegateChangedEv@Base 6.4.0
 _ZN19QQuickWebEngineView27touchSelectionMenuRequestedEP40QQuickWebEngineTouchSelectionMenuRequest@Base 6.3.0
 _ZN19QQuickWebEngineView29authenticationDialogRequestedEP42QQuickWebEngineAuthenticationDialogRequest@Base 6.2.2
 _ZN19QQuickWebEngineView32registerProtocolHandlerRequestedERK40QWebEngineRegisterProtocolHandlerRequest@Base 6.2.2
 _ZN19QQuickWebEngineView4stopEv@Base 6.2.2
 _ZN19QQuickWebEngineView6actionENS_9WebActionE@Base 6.2.2
 _ZN19QQuickWebEngineView6goBackEv@Base 6.2.2
 _ZN19QQuickWebEngineView6reloadEv@Base 6.2.2
 _ZN19QQuickWebEngineView6setUrlERK4QUrl@Base 6.2.2
 _ZN19QQuickWebEngineView7profileEv@Base 6.2.2
 _ZN19QQuickWebEngineView8findTextERK7QString6QFlagsINS_8FindFlagEERK8QJSValue@Base 6.2.2
 _ZN19QQuickWebEngineView8loadHtmlERK7QStringRK4QUrl@Base 6.2.2
 _ZN19QQuickWebEngineView8settingsEv@Base 6.2.2
 _ZN19QQuickWebEngineView9dropEventEP10QDropEvent@Base 6.2.2
 _ZN19QQuickWebEngineView9goForwardEv@Base 6.2.2
 _ZN19QQuickWebEngineViewC1EP10QQuickItem@Base 6.2.2
 _ZN19QQuickWebEngineViewC2EP10QQuickItem@Base 6.2.2
 _ZN19QQuickWebEngineViewD0Ev@Base 6.2.2
 _ZN19QQuickWebEngineViewD1Ev@Base 6.2.2
 _ZN19QQuickWebEngineViewD2Ev@Base 6.2.2
 _ZN21QQuickWebEngineAction11qt_metacallEN11QMetaObject4CallEiPPv@Base 6.2.2
 _ZN21QQuickWebEngineAction11qt_metacastEPKc@Base 6.2.2
 _ZN21QQuickWebEngineAction14enabledChangedEv@Base 6.2.2
 _ZN21QQuickWebEngineAction16staticMetaObjectE@Base 6.2.2
 _ZN21QQuickWebEngineAction7triggerEv@Base 6.2.2
 _ZN21QQuickWebEngineAction9triggeredEv@Base 6.2.2
 _ZN21QQuickWebEngineActionC1EP7QObject@Base 6.2.2
 _ZN21QQuickWebEngineActionC1ERK8QVariantRK7QStringS5_bP7QObject@Base 6.2.2
 _ZN21QQuickWebEngineActionC2EP7QObject@Base 6.2.2
 _ZN21QQuickWebEngineActionC2ERK8QVariantRK7QStringS5_bP7QObject@Base 6.2.2
 _ZN21QQuickWebEngineActionD0Ev@Base 6.2.2
 _ZN21QQuickWebEngineActionD1Ev@Base 6.2.2
 _ZN21QQuickWebEngineActionD2Ev@Base 6.2.2
 _ZN22QQuickWebEngineProfile11qt_metacallEN11QMetaObject4CallEiPPv@Base 6.2.2
 _ZN22QQuickWebEngineProfile11qt_metacastEPKc@Base 6.2.2
 _ZN22QQuickWebEngineProfile12setCachePathERK7QString@Base 6.2.2
 _ZN22QQuickWebEngineProfile14clearHttpCacheEv@Base 6.2.2
 _ZN22QQuickWebEngineProfile14defaultProfileEv@Base 6.2.2
 _ZN22QQuickWebEngineProfile14setStorageNameERK7QString@Base 6.2.2
 _ZN22QQuickWebEngineProfile15removeUrlSchemeERK10QByteArray@Base 6.2.2
 _ZN22QQuickWebEngineProfile15setDownloadPathERK7QString@Base 6.2.2
 _ZN22QQuickWebEngineProfile15setOffTheRecordEb@Base 6.2.2
 _ZN22QQuickWebEngineProfile16cachePathChangedEv@Base 6.2.2
 _ZN22QQuickWebEngineProfile16downloadFinishedEP30QQuickWebEngineDownloadRequest@Base 6.2.2
 _ZN22QQuickWebEngineProfile16ensureQmlContextEPK7QObject@Base 6.2.4
 _ZN22QQuickWebEngineProfile16setHttpCacheTypeENS_13HttpCacheTypeE@Base 6.2.2
 _ZN22QQuickWebEngineProfile16setHttpUserAgentERK7QString@Base 6.2.2
 _ZN22QQuickWebEngineProfile16staticMetaObjectE@Base 6.2.2
 _ZN22QQuickWebEngineProfile17downloadRequestedEP30QQuickWebEngineDownloadRequest@Base 6.2.2
 _ZN22QQuickWebEngineProfile18storageNameChangedEv@Base 6.2.2
 _ZN22QQuickWebEngineProfile19downloadPathChangedEv@Base 6.2.2
 _ZN22QQuickWebEngineProfile19offTheRecordChangedEv@Base 6.2.2
 _ZN22QQuickWebEngineProfile19presentNotificationEP22QWebEngineNotification@Base 6.2.2
 _ZN22QQuickWebEngineProfile20httpCacheTypeChangedEv@Base 6.2.2
 _ZN22QQuickWebEngineProfile20httpUserAgentChangedEv@Base 6.2.2
 _ZN22QQuickWebEngineProfile20setSpellCheckEnabledEb@Base 6.2.2
 _ZN22QQuickWebEngineProfile21setHttpAcceptLanguageERK7QString@Base 6.2.2
 _ZN22QQuickWebEngineProfile22clientCertificateStoreEv@Base 6.2.2
 _ZN22QQuickWebEngineProfile22removeUrlSchemeHandlerEP26QWebEngineUrlSchemeHandler@Base 6.2.2
 _ZN22QQuickWebEngineProfile22setSpellCheckLanguagesERK5QListI7QStringE@Base 6.2.2
 _ZN22QQuickWebEngineProfile23installUrlSchemeHandlerERK10QByteArrayP26QWebEngineUrlSchemeHandler@Base 6.2.2
 _ZN22QQuickWebEngineProfile23setHttpCacheMaximumSizeEi@Base 6.2.2
 _ZN22QQuickWebEngineProfile24setPersistentStoragePathERK7QString@Base 6.2.2
 _ZN22QQuickWebEngineProfile24setUrlRequestInterceptorEP31QWebEngineUrlRequestInterceptor@Base 6.2.2
 _ZN22QQuickWebEngineProfile24spellCheckEnabledChangedEv@Base 6.2.2
 _ZN22QQuickWebEngineProfile25httpAcceptLanguageChangedEv@Base 6.2.2
 _ZN22QQuickWebEngineProfile26removeAllUrlSchemeHandlersEv@Base 6.2.2
 _ZN22QQuickWebEngineProfile26setPersistentCookiesPolicyENS_23PersistentCookiesPolicyE@Base 6.2.2
 _ZN22QQuickWebEngineProfile26spellCheckLanguagesChangedEv@Base 6.2.2
 _ZN22QQuickWebEngineProfile27httpCacheMaximumSizeChangedEv@Base 6.2.2
 _ZN22QQuickWebEngineProfile28persistentStoragePathChangedEv@Base 6.2.2
 _ZN22QQuickWebEngineProfile30persistentCookiesPolicyChangedEv@Base 6.2.2
 _ZN22QQuickWebEngineProfileC1EP29QQuickWebEngineProfilePrivateP7QObject@Base 6.2.2
 _ZN22QQuickWebEngineProfileC1EP7QObject@Base 6.2.2
 _ZN22QQuickWebEngineProfileC2EP29QQuickWebEngineProfilePrivateP7QObject@Base 6.2.2
 _ZN22QQuickWebEngineProfileC2EP7QObject@Base 6.2.2
 _ZN22QQuickWebEngineProfileD0Ev@Base 6.2.2
 _ZN22QQuickWebEngineProfileD1Ev@Base 6.2.2
 _ZN22QQuickWebEngineProfileD2Ev@Base 6.2.2
 _ZN23QQuickWebEngineSettings11qt_metacallEN11QMetaObject4CallEiPPv@Base 6.2.2
 _ZN23QQuickWebEngineSettings11qt_metacastEPKc@Base 6.2.2
 _ZN23QQuickWebEngineSettings15setWebGLEnabledEb@Base 6.2.2
 _ZN23QQuickWebEngineSettings16staticMetaObjectE@Base 6.2.2
 _ZN23QQuickWebEngineSettings17setAutoLoadImagesEb@Base 6.2.2
 _ZN23QQuickWebEngineSettings17setParentSettingsEPS_@Base 6.2.2
 _ZN23QQuickWebEngineSettings17setPluginsEnabledEb@Base 6.2.2
 _ZN23QQuickWebEngineSettings17setShowScrollBarsEb@Base 6.2.2
 _ZN23QQuickWebEngineSettings19setErrorPageEnabledEb@Base 6.2.2
 _ZN23QQuickWebEngineSettings19setPdfViewerEnabledEb@Base 6.2.2
 _ZN23QQuickWebEngineSettings19webGLEnabledChangedEv@Base 6.2.2
 _ZN23QQuickWebEngineSettings20setJavascriptEnabledEb@Base 6.2.2
 _ZN23QQuickWebEngineSettings20setTouchIconsEnabledEb@Base 6.2.2
 _ZN23QQuickWebEngineSettings21autoLoadImagesChangedEv@Base 6.2.2
 _ZN23QQuickWebEngineSettings21pluginsEnabledChangedEv@Base 6.2.2
 _ZN23QQuickWebEngineSettings21setDnsPrefetchEnabledEb@Base 6.2.2
 _ZN23QQuickWebEngineSettings21setJavascriptCanPasteEb@Base 6.2.2
 _ZN23QQuickWebEngineSettings21showScrollBarsChangedEv@Base 6.2.2
 _ZN23QQuickWebEngineSettings22setDefaultTextEncodingE7QString@Base 6.2.2
 _ZN23QQuickWebEngineSettings22setLocalStorageEnabledEb@Base 6.2.2
 _ZN23QQuickWebEngineSettings23errorPageEnabledChangedEv@Base 6.2.2
 _ZN23QQuickWebEngineSettings23pdfViewerEnabledChangedEv@Base 6.2.2
 _ZN23QQuickWebEngineSettings23setAutoLoadIconsForPageEb@Base 6.2.2
 _ZN23QQuickWebEngineSettings23setScreenCaptureEnabledEb@Base 6.2.2
 _ZN23QQuickWebEngineSettings24javascriptEnabledChangedEv@Base 6.2.2
 _ZN23QQuickWebEngineSettings24setNavigateOnDropEnabledEb@Base 6.4.0
 _ZN23QQuickWebEngineSettings24touchIconsEnabledChangedEv@Base 6.2.2
 _ZN23QQuickWebEngineSettings25dnsPrefetchEnabledChangedEv@Base 6.2.2
 _ZN23QQuickWebEngineSettings25javascriptCanPasteChangedEv@Base 6.2.2
 _ZN23QQuickWebEngineSettings25setUnknownUrlSchemePolicyENS_22UnknownUrlSchemePolicyE@Base 6.2.2
 _ZN23QQuickWebEngineSettings26defaultTextEncodingChangedEv@Base 6.2.2
 _ZN23QQuickWebEngineSettings26localStorageEnabledChangedEv@Base 6.2.2
 _ZN23QQuickWebEngineSettings26setPrintElementBackgroundsEb@Base 6.2.2
 _ZN23QQuickWebEngineSettings27autoLoadIconsForPageChangedEv@Base 6.2.2
 _ZN23QQuickWebEngineSettings27screenCaptureEnabledChangedEv@Base 6.2.2
 _ZN23QQuickWebEngineSettings27setFocusOnNavigationEnabledEb@Base 6.2.2
 _ZN23QQuickWebEngineSettings27setFullScreenSupportEnabledEb@Base 6.2.2
 _ZN23QQuickWebEngineSettings27setHyperlinkAuditingEnabledEb@Base 6.2.2
 _ZN23QQuickWebEngineSettings27setJavascriptCanOpenWindowsEb@Base 6.2.2
 _ZN23QQuickWebEngineSettings27setSpatialNavigationEnabledEb@Base 6.2.2
 _ZN23QQuickWebEngineSettings28navigateOnDropEnabledChangedEv@Base 6.4.0
 _ZN23QQuickWebEngineSettings28setLinksIncludedInFocusChainEb@Base 6.2.2
 _ZN23QQuickWebEngineSettings29setAccelerated2dCanvasEnabledEb@Base 6.2.2
 _ZN23QQuickWebEngineSettings29setWebRTCPublicInterfacesOnlyEb@Base 6.2.2
 _ZN23QQuickWebEngineSettings29unknownUrlSchemePolicyChangedEv@Base 6.2.2
 _ZN23QQuickWebEngineSettings30printElementBackgroundsChangedEv@Base 6.2.2
 _ZN23QQuickWebEngineSettings30setAllowRunningInsecureContentEb@Base 6.2.2
 _ZN23QQuickWebEngineSettings30setPlaybackRequiresUserGestureEb@Base 6.2.2
 _ZN23QQuickWebEngineSettings31focusOnNavigationEnabledChangedEv@Base 6.2.2
 _ZN23QQuickWebEngineSettings31fullScreenSupportEnabledChangedEv@Base 6.2.2
 _ZN23QQuickWebEngineSettings31hyperlinkAuditingEnabledChangedEv@Base 6.2.2
 _ZN23QQuickWebEngineSettings31javascriptCanOpenWindowsChangedEv@Base 6.2.2
 _ZN23QQuickWebEngineSettings31setJavascriptCanAccessClipboardEb@Base 6.2.2
 _ZN23QQuickWebEngineSettings31spatialNavigationEnabledChangedEv@Base 6.2.2
 _ZN23QQuickWebEngineSettings32linksIncludedInFocusChainChangedEv@Base 6.2.2
 _ZN23QQuickWebEngineSettings32setLocalContentCanAccessFileUrlsEb@Base 6.2.2
 _ZN23QQuickWebEngineSettings33accelerated2dCanvasEnabledChangedEv@Base 6.2.2
 _ZN23QQuickWebEngineSettings33webRTCPublicInterfacesOnlyChangedEv@Base 6.2.2
 _ZN23QQuickWebEngineSettings34allowRunningInsecureContentChangedEv@Base 6.2.2
 _ZN23QQuickWebEngineSettings34playbackRequiresUserGestureChangedEv@Base 6.2.2
 _ZN23QQuickWebEngineSettings34setLocalContentCanAccessRemoteUrlsEb@Base 6.2.2
 _ZN23QQuickWebEngineSettings35javascriptCanAccessClipboardChangedEv@Base 6.2.2
 _ZN23QQuickWebEngineSettings36localContentCanAccessFileUrlsChangedEv@Base 6.2.2
 _ZN23QQuickWebEngineSettings36setAllowGeolocationOnInsecureOriginsEb@Base 6.2.2
 _ZN23QQuickWebEngineSettings38localContentCanAccessRemoteUrlsChangedEv@Base 6.2.2
 _ZN23QQuickWebEngineSettings38setAllowWindowActivationFromJavaScriptEb@Base 6.2.2
 _ZN23QQuickWebEngineSettings40allowGeolocationOnInsecureOriginsChangedEv@Base 6.2.2
 _ZN23QQuickWebEngineSettings42allowWindowActivationFromJavaScriptChangedEv@Base 6.2.2
 _ZN23QQuickWebEngineSettingsC1EPS_@Base 6.2.2
 _ZN23QQuickWebEngineSettingsC2EPS_@Base 6.2.2
 _ZN23QQuickWebEngineSettingsD0Ev@Base 6.2.2
 _ZN23QQuickWebEngineSettingsD1Ev@Base 6.2.2
 _ZN23QQuickWebEngineSettingsD2Ev@Base 6.2.2
 _ZN24QQuickWebEngineSingleton11qt_metacallEN11QMetaObject4CallEiPPv@Base 6.2.2
 _ZN24QQuickWebEngineSingleton11qt_metacastEPKc@Base 6.2.2
 _ZN24QQuickWebEngineSingleton16staticMetaObjectE@Base 6.2.2
 _ZN26QQuickWebEngineViewPrivate10setToolTipERK7QString@Base 6.2.2
 _ZN26QQuickWebEngineViewPrivate10urlChangedEv@Base 6.2.2
 _ZN26QQuickWebEngineViewPrivate11iconChangedERK4QUrl@Base 6.2.2
 _ZN26QQuickWebEngineViewPrivate11loadStartedE21QWebEngineLoadingInfo@Base 6.2.2
 _ZN26QQuickWebEngineViewPrivate11passOnFocusEb@Base 6.2.2
 _ZN26QQuickWebEngineViewPrivate12didPrintPageEy14QSharedPointerI10QByteArrayE@Base 6.2.2
 _ZN26QQuickWebEngineViewPrivate12loadFinishedE21QWebEngineLoadingInfo@Base 6.2.2
 _ZN26QQuickWebEngineViewPrivate12titleChangedERK7QString@Base 6.2.2
 _ZN26QQuickWebEngineViewPrivate13loadCommittedEv@Base 6.2.2
 _ZN26QQuickWebEngineViewPrivate13updateAdapterEv@Base 6.2.2
 _ZN26QQuickWebEngineViewPrivate14adoptNewWindowE14QSharedPointerIN15QtWebEngineCore18WebContentsAdapterEENS1_24WebContentsAdapterClient21WindowOpenDispositionEbRK5QRectRK4QUrl@Base 6.2.2
 _ZN26QQuickWebEngineViewPrivate14focusContainerEv@Base 6.2.2
 _ZN26QQuickWebEngineViewPrivate14getUserScriptsEv@Base 6.2.4
 _ZN26QQuickWebEngineViewPrivate14isBeingAdoptedEv@Base 6.2.2
 _ZN26QQuickWebEngineViewPrivate14printRequestedEv@Base 6.2.2
 _ZN26QQuickWebEngineViewPrivate14profileAdapterEv@Base 6.2.2
 _ZN26QQuickWebEngineViewPrivate14releaseProfileEv@Base 6.2.2
 _ZN26QQuickWebEngineViewPrivate14runFileChooserE14QSharedPointerIN15QtWebEngineCore20FilePickerControllerEE@Base 6.2.2
 _ZN26QQuickWebEngineViewPrivate14visibleChangedEb@Base 6.2.2
 _ZN26QQuickWebEngineViewPrivate15runQuotaRequestE22QWebEngineQuotaRequest@Base 6.2.2
 _ZN26QQuickWebEngineViewPrivate15showColorDialogE14QSharedPointerIN15QtWebEngineCore22ColorChooserControllerEE@Base 6.2.2
 _ZN26QQuickWebEngineViewPrivate16adoptWebContentsEPN15QtWebEngineCore18WebContentsAdapterE@Base 6.2.2
 _ZN26QQuickWebEngineViewPrivate16didRunJavaScriptEyRK8QVariant@Base 6.2.2
 _ZN26QQuickWebEngineViewPrivate16findTextFinishedERK24QWebEngineFindTextResult@Base 6.2.2
 _ZN26QQuickWebEngineViewPrivate16javascriptDialogE14QSharedPointerIN15QtWebEngineCore26JavaScriptDialogControllerEE@Base 6.2.2
 _ZN26QQuickWebEngineViewPrivate16selectClientCertERK14QSharedPointerIN15QtWebEngineCore26ClientCertSelectControllerEE@Base 6.2.2
 _ZN26QQuickWebEngineViewPrivate16selectionChangedEv@Base 6.2.2
 _ZN26QQuickWebEngineViewPrivate17didPrintPageToPdfERK7QStringb@Base 6.2.2
 _ZN26QQuickWebEngineViewPrivate17hideAutofillPopupEv@Base 6.4.0
 _ZN26QQuickWebEngineViewPrivate17initializeProfileEv@Base 6.2.2
 _ZN26QQuickWebEngineViewPrivate17setFullScreenModeEb@Base 6.2.2
 _ZN26QQuickWebEngineViewPrivate17showAutofillPopupEPN15QtWebEngineCore23AutofillPopupControllerERK5QRectb@Base 6.4.0
 _ZN26QQuickWebEngineViewPrivate17unhandledKeyEventEP9QKeyEvent@Base 6.2.2
 _ZN26QQuickWebEngineViewPrivate17updateEditActionsEv@Base 6.2.2
 _ZN26QQuickWebEngineViewPrivate18didUpdateTargetURLERK4QUrl@Base 6.2.2
 _ZN26QQuickWebEngineViewPrivate18updateContentsSizeERK6QSizeF@Base 6.2.2
 _ZN26QQuickWebEngineViewPrivate18webContentsAdapterEv@Base 6.2.2
 _ZN26QQuickWebEngineViewPrivate18zoomUpdateIsNeededEv@Base 6.3.1
 _ZN26QQuickWebEngineViewPrivate19delegateItemChangedEPN15QtWebEngineCore34RenderWidgetHostViewQtDelegateItemES2_@Base 6.4.0
 _ZN26QQuickWebEngineViewPrivate19loadProgressChangedEi@Base 6.2.2
 _ZN26QQuickWebEngineViewPrivate19navigationRequestedEiRK4QUrlRbb@Base 6.2.2
 _ZN26QQuickWebEngineViewPrivate19windowCloseRejectedEv@Base 6.2.2
 _ZN26QQuickWebEngineViewPrivate20contextMenuRequestedEP28QWebEngineContextMenuRequest@Base 6.2.2
 _ZN26QQuickWebEngineViewPrivate20updateScrollPositionERK7QPointF@Base 6.2.2
 _ZN26QQuickWebEngineViewPrivate21allowCertificateErrorERK26QWebEngineCertificateError@Base 6.2.2
 _ZN26QQuickWebEngineViewPrivate21ensureContentsAdapterEv@Base 6.2.2
 _ZN26QQuickWebEngineViewPrivate21lifecycleStateChangedEN15QtWebEngineCore24WebContentsAdapterClient14LifecycleStateE@Base 6.2.2
 _ZN26QQuickWebEngineViewPrivate21requestFullScreenModeERK4QUrlb@Base 6.2.2
 _ZN26QQuickWebEngineViewPrivate21requestGeometryChangeERK5QRectS2_@Base 6.2.2
 _ZN26QQuickWebEngineViewPrivate22authenticationRequiredE14QSharedPointerIN15QtWebEngineCore30AuthenticationDialogControllerEE@Base 6.2.2
 _ZN26QQuickWebEngineViewPrivate22hideTouchSelectionMenuEv@Base 6.2.2
 _ZN26QQuickWebEngineViewPrivate22initializationFinishedEv@Base 6.2.2
 _ZN26QQuickWebEngineViewPrivate22recentlyAudibleChangedEb@Base 6.2.2
 _ZN26QQuickWebEngineViewPrivate22showTouchSelectionMenuEPN15QtWebEngineCore28TouchSelectionMenuControllerERK5QRectRK5QSize@Base 6.2.2
 _ZN26QQuickWebEngineViewPrivate23bindViewAndDelegateItemEPS_PN15QtWebEngineCore34RenderWidgetHostViewQtDelegateItemE@Base 6.4.0
 _ZN26QQuickWebEngineViewPrivate23recommendedStateChangedEN15QtWebEngineCore24WebContentsAdapterClient14LifecycleStateE@Base 6.2.2
 _ZN26QQuickWebEngineViewPrivate23renderProcessPidChangedEx@Base 6.2.2
 _ZN26QQuickWebEngineViewPrivate23renderProcessTerminatedEN15QtWebEngineCore24WebContentsAdapterClient30RenderProcessTerminationStatusEi@Base 6.2.2
 _ZN26QQuickWebEngineViewPrivate23updateNavigationActionsEv@Base 6.2.2
 _ZN26QQuickWebEngineViewPrivate24javaScriptConsoleMessageEN15QtWebEngineCore24WebContentsAdapterClient29JavaScriptConsoleMessageLevelERK7QStringiS5_@Base 6.2.2
 _ZN26QQuickWebEngineViewPrivate25accessibilityParentObjectEv@Base 6.2.2
 _ZN26QQuickWebEngineViewPrivate25createTouchHandleDelegateERK4QMapIi6QImageE@Base 6.4.0
 _ZN26QQuickWebEngineViewPrivate26runFileSystemAccessRequestE33QWebEngineFileSystemAccessRequest@Base 6.4.0
 _ZN26QQuickWebEngineViewPrivate27runFeaturePermissionRequestEN15QtWebEngineCore14ProfileAdapter14PermissionTypeERK4QUrl@Base 6.2.2
 _ZN26QQuickWebEngineViewPrivate29runMouseLockPermissionRequestERK4QUrl@Base 6.2.2
 _ZN26QQuickWebEngineViewPrivate2uiEv@Base 6.2.2
 _ZN26QQuickWebEngineViewPrivate31runMediaAccessPermissionRequestERK4QUrl6QFlagsIN15QtWebEngineCore24WebContentsAdapterClient16MediaRequestFlagEE@Base 6.2.2
 _ZN26QQuickWebEngineViewPrivate33runRegisterProtocolHandlerRequestE40QWebEngineRegisterProtocolHandlerRequest@Base 6.2.2
 _ZN26QQuickWebEngineViewPrivate36CreateRenderWidgetHostViewQtDelegateEPN15QtWebEngineCore36RenderWidgetHostViewQtDelegateClientE@Base 6.2.2
 _ZN26QQuickWebEngineViewPrivate44CreateRenderWidgetHostViewQtDelegateForPopupEPN15QtWebEngineCore36RenderWidgetHostViewQtDelegateClientE@Base 6.2.2
 _ZN26QQuickWebEngineViewPrivate5closeEv@Base 6.2.2
 _ZN26QQuickWebEngineViewPrivateC1Ev@Base 6.2.2
 _ZN26QQuickWebEngineViewPrivateC2Ev@Base 6.2.2
 _ZN26QQuickWebEngineViewPrivateD0Ev@Base 6.2.2
 _ZN26QQuickWebEngineViewPrivateD1Ev@Base 6.2.2
 _ZN26QQuickWebEngineViewPrivateD2Ev@Base 6.2.2
 _ZN29QQuickWebEngineTooltipRequest11qt_metacallEN11QMetaObject4CallEiPPv@Base 6.2.2
 _ZN29QQuickWebEngineTooltipRequest11qt_metacastEPKc@Base 6.2.2
 _ZN29QQuickWebEngineTooltipRequest11setAcceptedEb@Base 6.2.2
 _ZN29QQuickWebEngineTooltipRequest16staticMetaObjectE@Base 6.2.2
 _ZN29QQuickWebEngineTooltipRequestC1ERK7QStringP7QObject@Base 6.2.2
 _ZN29QQuickWebEngineTooltipRequestC2ERK7QStringP7QObject@Base 6.2.2
 _ZN29QQuickWebEngineTooltipRequestD0Ev@Base 6.2.2
 _ZN29QQuickWebEngineTooltipRequestD1Ev@Base 6.2.2
 _ZN29QQuickWebEngineTooltipRequestD2Ev@Base 6.2.2
 _ZN30QQuickWebEngineDownloadRequest11qt_metacallEN11QMetaObject4CallEiPPv@Base 6.2.2
 _ZN30QQuickWebEngineDownloadRequest11qt_metacastEPKc@Base 6.2.2
 _ZN30QQuickWebEngineDownloadRequest16staticMetaObjectE@Base 6.2.2
 _ZN30QQuickWebEngineDownloadRequestC1EP32QWebEngineDownloadRequestPrivateP7QObject@Base 6.2.2
 _ZN30QQuickWebEngineDownloadRequestC2EP32QWebEngineDownloadRequestPrivateP7QObject@Base 6.2.2
 _ZN30QQuickWebEngineFaviconProvider10identifierEv@Base 6.2.2
 _ZN30QQuickWebEngineFaviconProvider18faviconProviderUrlERK4QUrl@Base 6.2.2
 _ZN30QQuickWebEngineFaviconProvider20requestImageResponseERK7QStringRK5QSize@Base 6.2.2
 _ZN30QQuickWebEngineFaviconProviderC1Ev@Base 6.2.2
 _ZN30QQuickWebEngineFaviconProviderC2Ev@Base 6.2.2
 _ZN30QQuickWebEngineFaviconProviderD0Ev@Base 6.2.2
 _ZN30QQuickWebEngineFaviconProviderD1Ev@Base 6.2.2
 _ZN30QQuickWebEngineFaviconProviderD2Ev@Base 6.2.2
 _ZN31QQuickWebEngineNewWindowRequest11qt_metacallEN11QMetaObject4CallEiPPv@Base 6.2.2
 _ZN31QQuickWebEngineNewWindowRequest11qt_metacastEPKc@Base 6.2.2
 _ZN31QQuickWebEngineNewWindowRequest16staticMetaObjectE@Base 6.2.2
 _ZN31QQuickWebEngineNewWindowRequest6openInEP19QQuickWebEngineView@Base 6.2.2
 _ZN31QQuickWebEngineNewWindowRequestC1EN26QWebEngineNewWindowRequest15DestinationTypeERK5QRectRK4QUrlb14QSharedPointerIN15QtWebEngineCore18WebContentsAdapterEEP7QObject@Base 6.2.2
 _ZN31QQuickWebEngineNewWindowRequestC2EN26QWebEngineNewWindowRequest15DestinationTypeERK5QRectRK4QUrlb14QSharedPointerIN15QtWebEngineCore18WebContentsAdapterEEP7QObject@Base 6.2.2
 _ZN31QQuickWebEngineScriptCollection11qt_metacallEN11QMetaObject4CallEiPPv@Base 6.2.2
 _ZN31QQuickWebEngineScriptCollection11qt_metacastEPKc@Base 6.2.2
 _ZN31QQuickWebEngineScriptCollection12setQmlEngineEP10QQmlEngine@Base 6.2.4
 _ZN31QQuickWebEngineScriptCollection13setCollectionERK8QJSValue@Base 6.2.2
 _ZN31QQuickWebEngineScriptCollection16staticMetaObjectE@Base 6.2.2
 _ZN31QQuickWebEngineScriptCollection17collectionChangedEv@Base 6.2.2
 _ZN31QQuickWebEngineScriptCollection5clearEv@Base 6.2.2
 _ZN31QQuickWebEngineScriptCollection6insertERK16QWebEngineScript@Base 6.2.2
 _ZN31QQuickWebEngineScriptCollection6insertERK5QListI16QWebEngineScriptE@Base 6.2.2
 _ZN31QQuickWebEngineScriptCollection6removeERK16QWebEngineScript@Base 6.2.2
 _ZN31QQuickWebEngineScriptCollection9qmlEngineEv@Base 6.2.4
 _ZN31QQuickWebEngineScriptCollectionC1EP38QQuickWebEngineScriptCollectionPrivate@Base 6.2.4
 _ZN31QQuickWebEngineScriptCollectionC2EP38QQuickWebEngineScriptCollectionPrivate@Base 6.2.4
 _ZN31QQuickWebEngineScriptCollectionD0Ev@Base 6.2.2
 _ZN31QQuickWebEngineScriptCollectionD1Ev@Base 6.2.2
 _ZN31QQuickWebEngineScriptCollectionD2Ev@Base 6.2.2
 _ZN32QQuickWebEngineFileDialogRequest11qt_metacallEN11QMetaObject4CallEiPPv@Base 6.2.2
 _ZN32QQuickWebEngineFileDialogRequest11qt_metacastEPKc@Base 6.2.2
 _ZN32QQuickWebEngineFileDialogRequest11setAcceptedEb@Base 6.2.2
 _ZN32QQuickWebEngineFileDialogRequest12dialogAcceptERK5QListI7QStringE@Base 6.2.2
 _ZN32QQuickWebEngineFileDialogRequest12dialogRejectEv@Base 6.2.2
 _ZN32QQuickWebEngineFileDialogRequest16staticMetaObjectE@Base 6.2.2
 _ZN32QQuickWebEngineFileDialogRequestC1E14QSharedPointerIN15QtWebEngineCore20FilePickerControllerEEP7QObject@Base 6.2.2
 _ZN32QQuickWebEngineFileDialogRequestC2E14QSharedPointerIN15QtWebEngineCore20FilePickerControllerEEP7QObject@Base 6.2.2
 _ZN32QQuickWebEngineFileDialogRequestD0Ev@Base 6.2.2
 _ZN32QQuickWebEngineFileDialogRequestD1Ev@Base 6.2.2
 _ZN32QQuickWebEngineFileDialogRequestD2Ev@Base 6.2.2
 _ZN33QQuickWebEngineColorDialogRequest11qt_metacallEN11QMetaObject4CallEiPPv@Base 6.2.2
 _ZN33QQuickWebEngineColorDialogRequest11qt_metacastEPKc@Base 6.2.2
 _ZN33QQuickWebEngineColorDialogRequest11setAcceptedEb@Base 6.2.2
 _ZN33QQuickWebEngineColorDialogRequest12dialogAcceptERK6QColor@Base 6.2.2
 _ZN33QQuickWebEngineColorDialogRequest12dialogRejectEv@Base 6.2.2
 _ZN33QQuickWebEngineColorDialogRequest16staticMetaObjectE@Base 6.2.2
 _ZN33QQuickWebEngineColorDialogRequestC1E14QSharedPointerIN15QtWebEngineCore22ColorChooserControllerEEP7QObject@Base 6.2.2
 _ZN33QQuickWebEngineColorDialogRequestC2E14QSharedPointerIN15QtWebEngineCore22ColorChooserControllerEEP7QObject@Base 6.2.2
 _ZN33QQuickWebEngineColorDialogRequestD0Ev@Base 6.2.2
 _ZN33QQuickWebEngineColorDialogRequestD1Ev@Base 6.2.2
 _ZN33QQuickWebEngineColorDialogRequestD2Ev@Base 6.2.2
 _ZN34QQuickWebEngineTouchHandleProvider10identifierEv@Base 6.2.2
 _ZN34QQuickWebEngineTouchHandleProvider12requestImageERK7QStringP5QSizeRKS3_@Base 6.2.2
 _ZN34QQuickWebEngineTouchHandleProvider3urlEi@Base 6.2.2
 _ZN34QQuickWebEngineTouchHandleProvider4initERK4QMapIi6QImageE@Base 6.2.2
 _ZN34QQuickWebEngineTouchHandleProviderC1Ev@Base 6.2.2
 _ZN34QQuickWebEngineTouchHandleProviderC2Ev@Base 6.2.2
 _ZN34QQuickWebEngineTouchHandleProviderD0Ev@Base 6.2.2
 _ZN34QQuickWebEngineTouchHandleProviderD1Ev@Base 6.2.2
 _ZN34QQuickWebEngineTouchHandleProviderD2Ev@Base 6.2.2
 _ZN38QQuickWebEngineClientCertificateOption11qt_metacallEN11QMetaObject4CallEiPPv@Base 6.2.2
 _ZN38QQuickWebEngineClientCertificateOption11qt_metacastEPKc@Base 6.2.2
 _ZN38QQuickWebEngineClientCertificateOption16staticMetaObjectE@Base 6.2.2
 _ZN38QQuickWebEngineClientCertificateOption6selectEv@Base 6.2.2
 _ZN38QQuickWebEngineClientCertificateOptionC1EP41QQuickWebEngineClientCertificateSelectioni@Base 6.2.2
 _ZN38QQuickWebEngineClientCertificateOptionC2EP41QQuickWebEngineClientCertificateSelectioni@Base 6.2.2
 _ZN38QQuickWebEngineJavaScriptDialogRequest11qt_metacallEN11QMetaObject4CallEiPPv@Base 6.2.2
 _ZN38QQuickWebEngineJavaScriptDialogRequest11qt_metacastEPKc@Base 6.2.2
 _ZN38QQuickWebEngineJavaScriptDialogRequest11setAcceptedEb@Base 6.2.2
 _ZN38QQuickWebEngineJavaScriptDialogRequest12dialogAcceptERK7QString@Base 6.2.2
 _ZN38QQuickWebEngineJavaScriptDialogRequest12dialogRejectEv@Base 6.2.2
 _ZN38QQuickWebEngineJavaScriptDialogRequest16staticMetaObjectE@Base 6.2.2
 _ZN38QQuickWebEngineJavaScriptDialogRequestC1E14QSharedPointerIN15QtWebEngineCore26JavaScriptDialogControllerEEP7QObject@Base 6.2.2
 _ZN38QQuickWebEngineJavaScriptDialogRequestC2E14QSharedPointerIN15QtWebEngineCore26JavaScriptDialogControllerEEP7QObject@Base 6.2.2
 _ZN38QQuickWebEngineJavaScriptDialogRequestD0Ev@Base 6.2.2
 _ZN38QQuickWebEngineJavaScriptDialogRequestD1Ev@Base 6.2.2
 _ZN38QQuickWebEngineJavaScriptDialogRequestD2Ev@Base 6.2.2
 _ZN40QQuickWebEngineTouchSelectionMenuRequest11buttonCountEv@Base 6.3.0
 _ZN40QQuickWebEngineTouchSelectionMenuRequest11qt_metacallEN11QMetaObject4CallEiPPv@Base 6.3.0
 _ZN40QQuickWebEngineTouchSelectionMenuRequest11qt_metacastEPKc@Base 6.3.0
 _ZN40QQuickWebEngineTouchSelectionMenuRequest11setAcceptedEb@Base 6.3.0
 _ZN40QQuickWebEngineTouchSelectionMenuRequest15selectionBoundsEv@Base 6.3.0
 _ZN40QQuickWebEngineTouchSelectionMenuRequest16staticMetaObjectE@Base 6.3.0
 _ZN40QQuickWebEngineTouchSelectionMenuRequestC1E5QRectPN15QtWebEngineCore28TouchSelectionMenuControllerE@Base 6.3.0
 _ZN40QQuickWebEngineTouchSelectionMenuRequestC2E5QRectPN15QtWebEngineCore28TouchSelectionMenuControllerE@Base 6.3.0
 _ZN40QQuickWebEngineTouchSelectionMenuRequestD0Ev@Base 6.3.0
 _ZN40QQuickWebEngineTouchSelectionMenuRequestD1Ev@Base 6.3.0
 _ZN40QQuickWebEngineTouchSelectionMenuRequestD2Ev@Base 6.3.0
 _ZN41QQuickWebEngineClientCertificateSelection10selectNoneEv@Base 6.2.2
 _ZN41QQuickWebEngineClientCertificateSelection11qt_metacallEN11QMetaObject4CallEiPPv@Base 6.2.2
 _ZN41QQuickWebEngineClientCertificateSelection11qt_metacastEPKc@Base 6.2.2
 _ZN41QQuickWebEngineClientCertificateSelection12certificatesEv@Base 6.2.2
 (subst)_ZN41QQuickWebEngineClientCertificateSelection15certificates_atEP16QQmlListPropertyI38QQuickWebEngineClientCertificateOptionE{qptrdiff}@Base 6.2.2
 _ZN41QQuickWebEngineClientCertificateSelection16staticMetaObjectE@Base 6.2.2
 _ZN41QQuickWebEngineClientCertificateSelection18certificates_countEP16QQmlListPropertyI38QQuickWebEngineClientCertificateOptionE@Base 6.2.2
 _ZN41QQuickWebEngineClientCertificateSelection6selectEPK38QQuickWebEngineClientCertificateOption@Base 6.2.2
 _ZN41QQuickWebEngineClientCertificateSelection6selectEi@Base 6.2.2
 _ZN41QQuickWebEngineClientCertificateSelectionC1E14QSharedPointerIN15QtWebEngineCore26ClientCertSelectControllerEE@Base 6.2.2
 _ZN41QQuickWebEngineClientCertificateSelectionC2E14QSharedPointerIN15QtWebEngineCore26ClientCertSelectControllerEE@Base 6.2.2
 _ZN42QQuickWebEngineAuthenticationDialogRequest11qt_metacallEN11QMetaObject4CallEiPPv@Base 6.2.2
 _ZN42QQuickWebEngineAuthenticationDialogRequest11qt_metacastEPKc@Base 6.2.2
 _ZN42QQuickWebEngineAuthenticationDialogRequest11setAcceptedEb@Base 6.2.2
 _ZN42QQuickWebEngineAuthenticationDialogRequest12dialogAcceptERK7QStringS2_@Base 6.2.2
 _ZN42QQuickWebEngineAuthenticationDialogRequest12dialogRejectEv@Base 6.2.2
 _ZN42QQuickWebEngineAuthenticationDialogRequest16staticMetaObjectE@Base 6.2.2
 _ZN42QQuickWebEngineAuthenticationDialogRequestC1E14QSharedPointerIN15QtWebEngineCore30AuthenticationDialogControllerEEP7QObject@Base 6.2.2
 _ZN42QQuickWebEngineAuthenticationDialogRequestC2E14QSharedPointerIN15QtWebEngineCore30AuthenticationDialogControllerEEP7QObject@Base 6.2.2
 _ZN42QQuickWebEngineAuthenticationDialogRequestD0Ev@Base 6.2.2
 _ZN42QQuickWebEngineAuthenticationDialogRequestD1Ev@Base 6.2.2
 _ZN42QQuickWebEngineAuthenticationDialogRequestD2Ev@Base 6.2.2
 _ZNK19QQuickWebEngineView10metaObjectEv@Base 6.2.2
 _ZNK19QQuickWebEngineView10zoomFactorEv@Base 6.2.2
 _ZNK19QQuickWebEngineView12canGoForwardEv@Base 6.2.2
 _ZNK19QQuickWebEngineView12contentsSizeEv@Base 6.2.2
 _ZNK19QQuickWebEngineView12devToolsViewEv@Base 6.2.2
 _ZNK19QQuickWebEngineView12isAudioMutedEv@Base 6.2.2
 _ZNK19QQuickWebEngineView12isFullScreenEv@Base 6.2.2
 _ZNK19QQuickWebEngineView12loadProgressEv@Base 6.2.2
 _ZNK19QQuickWebEngineView13inspectedViewEv@Base 6.2.2
 _ZNK19QQuickWebEngineView14lifecycleStateEv@Base 6.2.2
 _ZNK19QQuickWebEngineView14scrollPositionEv@Base 6.2.2
 _ZNK19QQuickWebEngineView15backgroundColorEv@Base 6.2.2
 _ZNK19QQuickWebEngineView15recentlyAudibleEv@Base 6.2.2
 _ZNK19QQuickWebEngineView15webChannelWorldEv@Base 6.2.2
 _ZNK19QQuickWebEngineView16recommendedStateEv@Base 6.2.2
 _ZNK19QQuickWebEngineView16renderProcessPidEv@Base 6.2.2
 _ZNK19QQuickWebEngineView18activeFocusOnPressEv@Base 6.2.2
 _ZNK19QQuickWebEngineView19touchHandleDelegateEv@Base 6.4.0
 _ZNK19QQuickWebEngineView3urlEv@Base 6.2.2
 _ZNK19QQuickWebEngineView4iconEv@Base 6.2.2
 _ZNK19QQuickWebEngineView5titleEv@Base 6.2.2
 _ZNK19QQuickWebEngineView7historyEv@Base 6.2.2
 _ZNK19QQuickWebEngineView9canGoBackEv@Base 6.2.2
 _ZNK19QQuickWebEngineView9isLoadingEv@Base 6.2.2
 _ZNK21QQuickWebEngineAction10metaObjectEv@Base 6.2.2
 _ZNK21QQuickWebEngineAction4textEv@Base 6.2.2
 _ZNK21QQuickWebEngineAction8iconNameEv@Base 6.2.2
 _ZNK21QQuickWebEngineAction9isEnabledEv@Base 6.2.2
 _ZNK22QQuickWebEngineProfile10metaObjectEv@Base 6.2.2
 _ZNK22QQuickWebEngineProfile11cookieStoreEv@Base 6.2.2
 _ZNK22QQuickWebEngineProfile11storageNameEv@Base 6.2.2
 _ZNK22QQuickWebEngineProfile11userScriptsEv@Base 6.2.2
 _ZNK22QQuickWebEngineProfile12downloadPathEv@Base 6.2.2
 _ZNK22QQuickWebEngineProfile13httpCacheTypeEv@Base 6.2.2
 _ZNK22QQuickWebEngineProfile13httpUserAgentEv@Base 6.2.2
 _ZNK22QQuickWebEngineProfile14isOffTheRecordEv@Base 6.2.2
 _ZNK22QQuickWebEngineProfile16urlSchemeHandlerERK10QByteArray@Base 6.2.2
 _ZNK22QQuickWebEngineProfile18httpAcceptLanguageEv@Base 6.2.2
 _ZNK22QQuickWebEngineProfile19isSpellCheckEnabledEv@Base 6.2.2
 _ZNK22QQuickWebEngineProfile19spellCheckLanguagesEv@Base 6.2.2
 _ZNK22QQuickWebEngineProfile20httpCacheMaximumSizeEv@Base 6.2.2
 _ZNK22QQuickWebEngineProfile21persistentStoragePathEv@Base 6.2.2
 _ZNK22QQuickWebEngineProfile23persistentCookiesPolicyEv@Base 6.2.2
 _ZNK22QQuickWebEngineProfile8settingsEv@Base 6.2.2
 _ZNK22QQuickWebEngineProfile9cachePathEv@Base 6.2.2
 _ZNK23QQuickWebEngineSettings10metaObjectEv@Base 6.2.2
 _ZNK23QQuickWebEngineSettings12webGLEnabledEv@Base 6.2.2
 _ZNK23QQuickWebEngineSettings14autoLoadImagesEv@Base 6.2.2
 _ZNK23QQuickWebEngineSettings14pluginsEnabledEv@Base 6.2.2
 _ZNK23QQuickWebEngineSettings14showScrollBarsEv@Base 6.2.2
 _ZNK23QQuickWebEngineSettings16errorPageEnabledEv@Base 6.2.2
 _ZNK23QQuickWebEngineSettings16pdfViewerEnabledEv@Base 6.2.2
 _ZNK23QQuickWebEngineSettings17javascriptEnabledEv@Base 6.2.2
 _ZNK23QQuickWebEngineSettings17touchIconsEnabledEv@Base 6.2.2
 _ZNK23QQuickWebEngineSettings18dnsPrefetchEnabledEv@Base 6.2.2
 _ZNK23QQuickWebEngineSettings18javascriptCanPasteEv@Base 6.2.2
 _ZNK23QQuickWebEngineSettings19defaultTextEncodingEv@Base 6.2.2
 _ZNK23QQuickWebEngineSettings19localStorageEnabledEv@Base 6.2.2
 _ZNK23QQuickWebEngineSettings20autoLoadIconsForPageEv@Base 6.2.2
 _ZNK23QQuickWebEngineSettings20screenCaptureEnabledEv@Base 6.2.2
 _ZNK23QQuickWebEngineSettings21navigateOnDropEnabledEv@Base 6.4.0
 _ZNK23QQuickWebEngineSettings22unknownUrlSchemePolicyEv@Base 6.2.2
 _ZNK23QQuickWebEngineSettings23printElementBackgroundsEv@Base 6.2.2
 _ZNK23QQuickWebEngineSettings24focusOnNavigationEnabledEv@Base 6.2.2
 _ZNK23QQuickWebEngineSettings24fullScreenSupportEnabledEv@Base 6.2.2
 _ZNK23QQuickWebEngineSettings24hyperlinkAuditingEnabledEv@Base 6.2.2
 _ZNK23QQuickWebEngineSettings24javascriptCanOpenWindowsEv@Base 6.2.2
 _ZNK23QQuickWebEngineSettings24spatialNavigationEnabledEv@Base 6.2.2
 _ZNK23QQuickWebEngineSettings25linksIncludedInFocusChainEv@Base 6.2.2
 _ZNK23QQuickWebEngineSettings26accelerated2dCanvasEnabledEv@Base 6.2.2
 _ZNK23QQuickWebEngineSettings26webRTCPublicInterfacesOnlyEv@Base 6.2.2
 _ZNK23QQuickWebEngineSettings27allowRunningInsecureContentEv@Base 6.2.2
 _ZNK23QQuickWebEngineSettings27playbackRequiresUserGestureEv@Base 6.2.2
 _ZNK23QQuickWebEngineSettings28javascriptCanAccessClipboardEv@Base 6.2.2
 _ZNK23QQuickWebEngineSettings29localContentCanAccessFileUrlsEv@Base 6.2.2
 _ZNK23QQuickWebEngineSettings31localContentCanAccessRemoteUrlsEv@Base 6.2.2
 _ZNK23QQuickWebEngineSettings33allowGeolocationOnInsecureOriginsEv@Base 6.2.2
 _ZNK23QQuickWebEngineSettings35allowWindowActivationFromJavaScriptEv@Base 6.2.2
 _ZNK24QQuickWebEngineSingleton10metaObjectEv@Base 6.2.2
 _ZNK24QQuickWebEngineSingleton14defaultProfileEv@Base 6.2.2
 _ZNK24QQuickWebEngineSingleton6scriptEv@Base 6.2.2
 _ZNK24QQuickWebEngineSingleton8settingsEv@Base 6.2.2
 _ZNK26QQuickWebEngineViewPrivate10dragSourceEv@Base 6.2.2
 _ZNK26QQuickWebEngineViewPrivate12updateActionEN19QQuickWebEngineView9WebActionE@Base 6.2.2
 _ZNK26QQuickWebEngineViewPrivate12viewportRectEv@Base 6.2.2
 _ZNK26QQuickWebEngineViewPrivate14holdingQObjectEv@Base 6.2.2
 _ZNK26QQuickWebEngineViewPrivate15backgroundColorEv@Base 6.2.2
 _ZNK26QQuickWebEngineViewPrivate16isFullScreenModeEv@Base 6.2.2
 _ZNK26QQuickWebEngineViewPrivate17webEngineSettingsEv@Base 6.2.2
 _ZNK26QQuickWebEngineViewPrivate18profileInitializedEv@Base 6.2.2
 _ZNK26QQuickWebEngineViewPrivate9isEnabledEv@Base 6.2.2
 _ZNK29QQuickWebEngineTooltipRequest10isAcceptedEv@Base 6.2.2
 _ZNK29QQuickWebEngineTooltipRequest10metaObjectEv@Base 6.2.2
 _ZNK29QQuickWebEngineTooltipRequest1xEv@Base 6.2.2
 _ZNK29QQuickWebEngineTooltipRequest1yEv@Base 6.2.2
 _ZNK29QQuickWebEngineTooltipRequest4textEv@Base 6.2.2
 _ZNK29QQuickWebEngineTooltipRequest4typeEv@Base 6.2.2
 _ZNK30QQuickWebEngineDownloadRequest10metaObjectEv@Base 6.2.2
 _ZNK30QQuickWebEngineDownloadRequest4viewEv@Base 6.2.2
 _ZNK31QQuickWebEngineNewWindowRequest10metaObjectEv@Base 6.2.2
 _ZNK31QQuickWebEngineScriptCollection10collectionEv@Base 6.2.2
 _ZNK31QQuickWebEngineScriptCollection10metaObjectEv@Base 6.2.2
 _ZNK31QQuickWebEngineScriptCollection4findERK7QString@Base 6.2.2
 _ZNK31QQuickWebEngineScriptCollection8containsERK16QWebEngineScript@Base 6.2.2
 _ZNK32QQuickWebEngineFileDialogRequest10isAcceptedEv@Base 6.2.2
 _ZNK32QQuickWebEngineFileDialogRequest10metaObjectEv@Base 6.2.2
 _ZNK32QQuickWebEngineFileDialogRequest15defaultFileNameEv@Base 6.2.2
 _ZNK32QQuickWebEngineFileDialogRequest17acceptedMimeTypesEv@Base 6.2.2
 _ZNK32QQuickWebEngineFileDialogRequest4modeEv@Base 6.2.2
 _ZNK33QQuickWebEngineColorDialogRequest10isAcceptedEv@Base 6.2.2
 _ZNK33QQuickWebEngineColorDialogRequest10metaObjectEv@Base 6.2.2
 _ZNK33QQuickWebEngineColorDialogRequest5colorEv@Base 6.2.2
 _ZNK38QQuickWebEngineClientCertificateOption10expiryDateEv@Base 6.2.2
 _ZNK38QQuickWebEngineClientCertificateOption10metaObjectEv@Base 6.2.2
 _ZNK38QQuickWebEngineClientCertificateOption12isSelfSignedEv@Base 6.2.2
 _ZNK38QQuickWebEngineClientCertificateOption13effectiveDateEv@Base 6.2.2
 _ZNK38QQuickWebEngineClientCertificateOption6issuerEv@Base 6.2.2
 _ZNK38QQuickWebEngineClientCertificateOption7subjectEv@Base 6.2.2
 _ZNK38QQuickWebEngineJavaScriptDialogRequest10isAcceptedEv@Base 6.2.2
 _ZNK38QQuickWebEngineJavaScriptDialogRequest10metaObjectEv@Base 6.2.2
 _ZNK38QQuickWebEngineJavaScriptDialogRequest11defaultTextEv@Base 6.2.2
 _ZNK38QQuickWebEngineJavaScriptDialogRequest14securityOriginEv@Base 6.2.2
 _ZNK38QQuickWebEngineJavaScriptDialogRequest4typeEv@Base 6.2.2
 _ZNK38QQuickWebEngineJavaScriptDialogRequest5titleEv@Base 6.2.2
 _ZNK38QQuickWebEngineJavaScriptDialogRequest7messageEv@Base 6.2.2
 _ZNK40QQuickWebEngineTouchSelectionMenuRequest10isAcceptedEv@Base 6.3.0
 _ZNK40QQuickWebEngineTouchSelectionMenuRequest10metaObjectEv@Base 6.3.0
 _ZNK40QQuickWebEngineTouchSelectionMenuRequest26touchSelectionCommandFlagsEv@Base 6.3.0
 _ZNK41QQuickWebEngineClientCertificateSelection10metaObjectEv@Base 6.2.2
 _ZNK41QQuickWebEngineClientCertificateSelection4hostEv@Base 6.2.2
 _ZNK42QQuickWebEngineAuthenticationDialogRequest10isAcceptedEv@Base 6.2.2
 _ZNK42QQuickWebEngineAuthenticationDialogRequest10metaObjectEv@Base 6.2.2
 _ZNK42QQuickWebEngineAuthenticationDialogRequest3urlEv@Base 6.2.2
 _ZNK42QQuickWebEngineAuthenticationDialogRequest4typeEv@Base 6.2.2
 _ZNK42QQuickWebEngineAuthenticationDialogRequest5realmEv@Base 6.2.2
 _ZNK42QQuickWebEngineAuthenticationDialogRequest9proxyHostEv@Base 6.2.2
 _ZSt19piecewise_construct@Base 6.4.1
 _ZTI19QQuickWebEngineView@Base 6.2.2
 _ZTI21QQuickWebEngineAction@Base 6.2.2
 _ZTI22QQuickWebEngineProfile@Base 6.2.2
 _ZTI23QQuickWebEngineSettings@Base 6.2.2
 _ZTI24QQuickWebEngineSingleton@Base 6.2.2
 _ZTI26QQuickWebEngineViewPrivate@Base 6.2.2
 _ZTI29QQuickWebEngineTooltipRequest@Base 6.2.2
 _ZTI30QQuickWebEngineDownloadRequest@Base 6.2.2
 _ZTI30QQuickWebEngineFaviconProvider@Base 6.2.2
 _ZTI31QQuickWebEngineNewWindowRequest@Base 6.2.2
 _ZTI31QQuickWebEngineScriptCollection@Base 6.2.2
 _ZTI32QQuickWebEngineFileDialogRequest@Base 6.2.2
 _ZTI33QQuickWebEngineColorDialogRequest@Base 6.2.2
 _ZTI34QQuickWebEngineTouchHandleProvider@Base 6.2.2
 _ZTI38QQuickWebEngineClientCertificateOption@Base 6.2.2
 _ZTI38QQuickWebEngineJavaScriptDialogRequest@Base 6.2.2
 _ZTI40QQuickWebEngineTouchSelectionMenuRequest@Base 6.3.0
 _ZTI41QQuickWebEngineClientCertificateSelection@Base 6.2.2
 _ZTI42QQuickWebEngineAuthenticationDialogRequest@Base 6.2.2
 _ZTIFP7QObjectP10QQmlEngineP9QJSEngineE@Base 6.2.2
 _ZTIN15QtWebEngineCore20ProfileAdapterClientE@Base 6.2.2
 _ZTIN15QtWebEngineCore23RenderViewContextMenuQtE@Base 6.2.2
 _ZTIN15QtWebEngineCore24WebContentsAdapterClientE@Base 6.2.2
 _ZTIN15QtWebEngineCore27TouchHandleDrawableDelegateE@Base 6.4.0
 _ZTIPFP7QObjectP10QQmlEngineP9QJSEngineE@Base 6.2.2
 _ZTIZN9QMetaType17registerConverterI5QListI16QWebEngineScriptE9QIterableI13QMetaSequenceEN9QtPrivate33QSequentialIterableConvertFunctorIS3_EEEEbT1_EUlPKvPvE_@Base 6.2.2
 _ZTIZN9QMetaType17registerConverterI5QListI22QWebEngineQuotaRequestE9QIterableI13QMetaSequenceEN9QtPrivate33QSequentialIterableConvertFunctorIS3_EEEEbT1_EUlPKvPvE_@Base 6.4.0
 _ZTIZN9QMetaType17registerConverterI5QListI24QWebEngineFindTextResultE9QIterableI13QMetaSequenceEN9QtPrivate33QSequentialIterableConvertFunctorIS3_EEEEbT1_EUlPKvPvE_@Base 6.4.0
 _ZTIZN9QMetaType17registerConverterI5QListI26QWebEngineCertificateErrorE9QIterableI13QMetaSequenceEN9QtPrivate33QSequentialIterableConvertFunctorIS3_EEEEbT1_EUlPKvPvE_@Base 6.4.0
 _ZTIZN9QMetaType17registerConverterI5QListI40QWebEngineRegisterProtocolHandlerRequestE9QIterableI13QMetaSequenceEN9QtPrivate33QSequentialIterableConvertFunctorIS3_EEEEbT1_EUlPKvPvE_@Base 6.4.0
 _ZTIZN9QMetaType19registerMutableViewI5QListI16QWebEngineScriptE9QIterableI13QMetaSequenceEN9QtPrivate37QSequentialIterableMutableViewFunctorIS3_EEEEbT1_EUlPvSB_E_@Base 6.2.2
 _ZTIZN9QMetaType19registerMutableViewI5QListI22QWebEngineQuotaRequestE9QIterableI13QMetaSequenceEN9QtPrivate37QSequentialIterableMutableViewFunctorIS3_EEEEbT1_EUlPvSB_E_@Base 6.4.0
 _ZTIZN9QMetaType19registerMutableViewI5QListI24QWebEngineFindTextResultE9QIterableI13QMetaSequenceEN9QtPrivate37QSequentialIterableMutableViewFunctorIS3_EEEEbT1_EUlPvSB_E_@Base 6.4.0
 _ZTIZN9QMetaType19registerMutableViewI5QListI26QWebEngineCertificateErrorE9QIterableI13QMetaSequenceEN9QtPrivate37QSequentialIterableMutableViewFunctorIS3_EEEEbT1_EUlPvSB_E_@Base 6.4.0
 _ZTIZN9QMetaType19registerMutableViewI5QListI40QWebEngineRegisterProtocolHandlerRequestE9QIterableI13QMetaSequenceEN9QtPrivate37QSequentialIterableMutableViewFunctorIS3_EEEEbT1_EUlPvSB_E_@Base 6.4.0
 _ZTS19QQuickWebEngineView@Base 6.2.2
 _ZTS21QQuickWebEngineAction@Base 6.2.2
 _ZTS22QQuickWebEngineProfile@Base 6.2.2
 _ZTS23QQuickWebEngineSettings@Base 6.2.2
 _ZTS24QQuickWebEngineSingleton@Base 6.2.2
 _ZTS26QQuickWebEngineViewPrivate@Base 6.2.2
 _ZTS29QQuickWebEngineTooltipRequest@Base 6.2.2
 _ZTS30QQuickWebEngineDownloadRequest@Base 6.2.2
 _ZTS30QQuickWebEngineFaviconProvider@Base 6.2.2
 _ZTS31QQuickWebEngineNewWindowRequest@Base 6.2.2
 _ZTS31QQuickWebEngineScriptCollection@Base 6.2.2
 _ZTS32QQuickWebEngineFileDialogRequest@Base 6.2.2
 _ZTS33QQuickWebEngineColorDialogRequest@Base 6.2.2
 _ZTS34QQuickWebEngineTouchHandleProvider@Base 6.2.2
 _ZTS38QQuickWebEngineClientCertificateOption@Base 6.2.2
 _ZTS38QQuickWebEngineJavaScriptDialogRequest@Base 6.2.2
 _ZTS40QQuickWebEngineTouchSelectionMenuRequest@Base 6.3.0
 _ZTS41QQuickWebEngineClientCertificateSelection@Base 6.2.2
 _ZTS42QQuickWebEngineAuthenticationDialogRequest@Base 6.2.2
 _ZTSFP7QObjectP10QQmlEngineP9QJSEngineE@Base 6.2.2
 _ZTSN15QtWebEngineCore20ProfileAdapterClientE@Base 6.2.2
 _ZTSN15QtWebEngineCore23RenderViewContextMenuQtE@Base 6.2.2
 _ZTSN15QtWebEngineCore24WebContentsAdapterClientE@Base 6.2.2
 _ZTSN15QtWebEngineCore27TouchHandleDrawableDelegateE@Base 6.4.0
 _ZTSPFP7QObjectP10QQmlEngineP9QJSEngineE@Base 6.2.2
 _ZTSZN9QMetaType17registerConverterI5QListI16QWebEngineScriptE9QIterableI13QMetaSequenceEN9QtPrivate33QSequentialIterableConvertFunctorIS3_EEEEbT1_EUlPKvPvE_@Base 6.2.2
 _ZTSZN9QMetaType17registerConverterI5QListI22QWebEngineQuotaRequestE9QIterableI13QMetaSequenceEN9QtPrivate33QSequentialIterableConvertFunctorIS3_EEEEbT1_EUlPKvPvE_@Base 6.4.0
 _ZTSZN9QMetaType17registerConverterI5QListI24QWebEngineFindTextResultE9QIterableI13QMetaSequenceEN9QtPrivate33QSequentialIterableConvertFunctorIS3_EEEEbT1_EUlPKvPvE_@Base 6.4.0
 _ZTSZN9QMetaType17registerConverterI5QListI26QWebEngineCertificateErrorE9QIterableI13QMetaSequenceEN9QtPrivate33QSequentialIterableConvertFunctorIS3_EEEEbT1_EUlPKvPvE_@Base 6.4.0
 _ZTSZN9QMetaType17registerConverterI5QListI40QWebEngineRegisterProtocolHandlerRequestE9QIterableI13QMetaSequenceEN9QtPrivate33QSequentialIterableConvertFunctorIS3_EEEEbT1_EUlPKvPvE_@Base 6.4.0
 _ZTSZN9QMetaType19registerMutableViewI5QListI16QWebEngineScriptE9QIterableI13QMetaSequenceEN9QtPrivate37QSequentialIterableMutableViewFunctorIS3_EEEEbT1_EUlPvSB_E_@Base 6.2.2
 _ZTSZN9QMetaType19registerMutableViewI5QListI22QWebEngineQuotaRequestE9QIterableI13QMetaSequenceEN9QtPrivate37QSequentialIterableMutableViewFunctorIS3_EEEEbT1_EUlPvSB_E_@Base 6.4.0
 _ZTSZN9QMetaType19registerMutableViewI5QListI24QWebEngineFindTextResultE9QIterableI13QMetaSequenceEN9QtPrivate37QSequentialIterableMutableViewFunctorIS3_EEEEbT1_EUlPvSB_E_@Base 6.4.0
 _ZTSZN9QMetaType19registerMutableViewI5QListI26QWebEngineCertificateErrorE9QIterableI13QMetaSequenceEN9QtPrivate37QSequentialIterableMutableViewFunctorIS3_EEEEbT1_EUlPvSB_E_@Base 6.4.0
 _ZTSZN9QMetaType19registerMutableViewI5QListI40QWebEngineRegisterProtocolHandlerRequestE9QIterableI13QMetaSequenceEN9QtPrivate37QSequentialIterableMutableViewFunctorIS3_EEEEbT1_EUlPvSB_E_@Base 6.4.0
 _ZTV19QQuickWebEngineView@Base 6.2.2
 _ZTV21QQuickWebEngineAction@Base 6.2.2
 _ZTV22QQuickWebEngineProfile@Base 6.2.2
 _ZTV23QQuickWebEngineSettings@Base 6.2.2
 _ZTV24QQuickWebEngineSingleton@Base 6.2.2
 _ZTV26QQuickWebEngineViewPrivate@Base 6.2.2
 _ZTV29QQuickWebEngineTooltipRequest@Base 6.2.2
 _ZTV30QQuickWebEngineDownloadRequest@Base 6.2.2
 _ZTV30QQuickWebEngineFaviconProvider@Base 6.2.2
 _ZTV31QQuickWebEngineNewWindowRequest@Base 6.2.2
 _ZTV31QQuickWebEngineScriptCollection@Base 6.2.2
 _ZTV32QQuickWebEngineFileDialogRequest@Base 6.2.2
 _ZTV33QQuickWebEngineColorDialogRequest@Base 6.2.2
 _ZTV34QQuickWebEngineTouchHandleProvider@Base 6.2.2
 _ZTV38QQuickWebEngineClientCertificateOption@Base 6.2.2
 _ZTV38QQuickWebEngineJavaScriptDialogRequest@Base 6.2.2
 _ZTV40QQuickWebEngineTouchSelectionMenuRequest@Base 6.3.0
 _ZTV41QQuickWebEngineClientCertificateSelection@Base 6.2.2
 _ZTV42QQuickWebEngineAuthenticationDialogRequest@Base 6.2.2
 (optional=templinst)_ZZN9QMetaType21registerConverterImplI5QListI16QWebEngineScriptE9QIterableI13QMetaSequenceEEEbSt8functionIFbPKvPvEES_S_E10unregister@Base 6.2.2
 (optional=templinst)_ZZN9QMetaType21registerConverterImplI5QListI22QWebEngineQuotaRequestE9QIterableI13QMetaSequenceEEEbSt8functionIFbPKvPvEES_S_E10unregister@Base 6.4.0
 (optional=templinst)_ZZN9QMetaType21registerConverterImplI5QListI24QWebEngineFindTextResultE9QIterableI13QMetaSequenceEEEbSt8functionIFbPKvPvEES_S_E10unregister@Base 6.4.0
 (optional=templinst)_ZZN9QMetaType21registerConverterImplI5QListI26QWebEngineCertificateErrorE9QIterableI13QMetaSequenceEEEbSt8functionIFbPKvPvEES_S_E10unregister@Base 6.4.0
 (optional=templinst)_ZZN9QMetaType21registerConverterImplI5QListI40QWebEngineRegisterProtocolHandlerRequestE9QIterableI13QMetaSequenceEEEbSt8functionIFbPKvPvEES_S_E10unregister@Base 6.4.0
 (optional=templinst)_ZZN9QMetaType23registerMutableViewImplI5QListI16QWebEngineScriptE9QIterableI13QMetaSequenceEEEbSt8functionIFbPvS8_EES_S_E10unregister@Base 6.2.2
 (optional=templinst)_ZZN9QMetaType23registerMutableViewImplI5QListI22QWebEngineQuotaRequestE9QIterableI13QMetaSequenceEEEbSt8functionIFbPvS8_EES_S_E10unregister@Base 6.4.0
 (optional=templinst)_ZZN9QMetaType23registerMutableViewImplI5QListI24QWebEngineFindTextResultE9QIterableI13QMetaSequenceEEEbSt8functionIFbPvS8_EES_S_E10unregister@Base 6.4.0
 (optional=templinst)_ZZN9QMetaType23registerMutableViewImplI5QListI26QWebEngineCertificateErrorE9QIterableI13QMetaSequenceEEEbSt8functionIFbPvS8_EES_S_E10unregister@Base 6.4.0
 (optional=templinst)_ZZN9QMetaType23registerMutableViewImplI5QListI40QWebEngineRegisterProtocolHandlerRequestE9QIterableI13QMetaSequenceEEEbSt8functionIFbPvS8_EES_S_E10unregister@Base 6.4.0
 (c++)"non-virtual thunk to QQuickWebEngineView::componentComplete()@Base" 6.2.2
 (c++)"non-virtual thunk to QQuickWebEngineView::~QQuickWebEngineView()@Base" 6.2.2
